(lp0
S'1,51,51,51,51,51,51,51,51,51,51,51,51,51,51,100,100,5,77.00,33.00,16.439473,80.630513,0.045000,7.14300012589'
p1
aS'3,51,51,51,51,22,19,51,51,51,51,18,19,51,51,100,100,1,76.00,33.00,16.439476,80.630506,0.069000,11.1510000229'
p2
aS'1,51,51,51,51,51,51,31,25,25,26,51,51,51,51,100,100,1,76.00,33.00,16.439470,80.630506,0.182000,13.8020000458'
p3
aS'1,51,51,51,51,51,51,51,51,51,51,51,51,51,51,100,100,2,76.00,33.00,16.439478,80.630510,0.116000,25.7590000629'
p4
aS'3,51,51,51,51,21,20,51,51,51,51,51,25,51,51,100,100,2,76.00,33.00,16.439486,80.630501,0.313000,29.7430000305'
p5
aS'1,51,51,51,51,51,51,26,27,27,27,51,51,51,51,100,100,2,76.00,33.00,16.439493,80.630504,0.495000,31.0510001183'
p6
aS'1,51,51,51,51,51,51,51,51,51,51,51,51,51,51,100,100,2,76.00,33.00,16.439468,80.630519,0.199000,47.003000021'
p7
aS'3,51,51,51,51,24,22,51,51,51,51,21,22,51,51,100,100,2,76.00,33.00,16.439457,80.630509,0.426000,50.9880001545'
p8
aS'1,51,51,51,51,51,26,25,25,26,26,30,51,51,51,100,100,1,76.00,33.00,16.439458,80.630508,0.364000,52.3140001297'
p9
aS'3,51,51,51,51,51,51,26,24,24,24,51,51,51,51,100,100,2,76.00,33.00,16.439457,80.630504,0.072000,53.6380000114'
p10
aS'1,51,51,51,51,51,51,51,25,25,26,51,51,51,51,100,100,0,76.00,33.00,16.439453,80.630500,0.094000,54.9700000286'
p11
aS'1,51,51,51,51,51,51,51,51,51,51,51,51,51,51,100,100,1,75.00,33.00,16.439446,80.630468,0.012000,66.9240000248'
p12
aS'3,51,51,51,51,20,20,21,51,51,24,21,51,51,51,100,100,1,75.00,33.00,16.439455,80.630460,0.272000,69.5730001926'
p13
aS'1,51,51,51,51,51,51,27,27,27,27,51,51,51,51,100,100,0,75.00,33.00,16.439460,80.630457,0.237000,70.9060001373'
p14
aS'3,51,51,51,51,51,51,17,16,16,17,51,51,51,51,100,100,2,75.00,33.00,16.439467,80.630450,0.353000,73.5350000858'
p15
aS'1,51,51,51,51,51,51,51,22,21,51,51,51,51,51,100,100,1,75.00,33.00,16.439471,80.630447,0.319000,74.8630001545'
p16
aS'1,51,51,51,51,51,51,51,51,51,51,51,51,51,51,100,100,1,75.00,33.00,16.439448,80.630501,0.707000,86.8340001106'
p17
aS'3,51,51,51,51,19,18,20,51,51,51,20,51,51,51,100,100,2,75.00,33.00,16.439459,80.630496,0.157000,89.4880001545'
p18
aS'1,51,51,51,51,51,51,26,25,25,25,51,51,51,51,100,100,2,75.00,33.00,16.439465,80.630489,0.185000,90.8170001507'
p19
aS'1,51,51,51,51,51,51,51,51,51,51,51,51,51,51,100,100,1,75.00,33.00,16.439483,80.630452,0.259000,104.058000088'
p20
aS'3,51,51,51,51,19,17,18,51,51,21,18,51,51,51,100,100,1,75.00,33.00,16.439482,80.630443,0.381000,108.063000202'
p21
aS'1,51,51,51,51,51,51,25,22,21,22,51,51,51,51,100,100,2,75.00,33.00,16.439486,80.630452,0.069000,110.717000008'
p22
aS'1,51,51,51,51,51,51,51,51,51,51,51,51,51,51,100,100,2,75.00,33.00,16.439491,80.630440,0.152000,120.012000084'
p23
aS'3,51,51,51,51,24,21,51,51,51,51,20,23,51,51,100,100,1,75.00,33.00,16.439494,80.630434,0.123000,122.674000025'
p24
aS'1,51,51,51,51,51,51,28,27,28,29,51,51,51,51,100,100,1,75.00,33.00,16.439497,80.630437,0.224000,123.995000124'
p25
aS'1,51,51,51,51,51,51,51,51,51,51,51,51,51,51,100,100,1,75.00,33.00,16.439487,80.630449,0.535000,138.605000019'
p26
aS'3,51,51,51,51,22,21,26,51,51,51,51,51,51,51,100,100,2,75.00,33.00,16.439484,80.630463,0.713000,141.263000011'
p27
aS'1,51,51,51,51,51,51,29,28,28,27,30,51,51,51,100,100,1,75.00,33.00,16.439491,80.630462,0.476000,142.595000029'
p28
aS'3,51,51,51,51,51,51,21,20,19,18,22,51,51,51,100,100,1,75.00,33.00,16.439480,80.630459,0.187000,143.913000107'
p29
aS'1,51,51,51,51,51,51,21,19,18,19,51,51,51,51,100,100,0,75.00,33.00,16.439469,80.630466,0.541000,145.21600008'
p30
aS'1,51,51,51,51,51,51,51,51,51,51,51,51,51,51,100,100,1,75.00,33.00,16.439488,80.630504,0.305000,154.53000021'
p31
aS'3,51,51,51,32,28,28,51,51,51,51,24,19,22,51,100,100,1,75.00,34.00,16.439510,80.630500,0.582000,157.230000019'
p32
aS'1,51,51,51,51,51,51,22,20,20,20,51,51,51,51,100,100,1,75.00,33.00,16.439525,80.630498,0.576000,161.1650002'
p33
aS'1,51,51,51,51,51,51,51,51,51,51,51,51,51,51,100,100,0,75.00,33.00,16.439522,80.630508,0.117000,169.134000063'
p34
aS'3,51,51,51,51,32,29,29,51,51,51,51,23,51,51,100,100,2,75.00,33.00,16.439525,80.630506,0.103000,171.7900002'
p35
aS'1,51,51,51,51,51,51,51,29,29,29,51,51,51,51,100,100,1,75.00,33.00,16.439528,80.630513,0.066000,174.447000027'
p36
aS'1,51,51,51,51,51,51,51,51,51,51,51,51,51,51,100,100,2,75.00,33.00,16.439517,80.630551,0.205000,186.397000074'
p37
aS'3,51,51,51,51,20,20,51,51,51,51,15,14,51,51,100,100,1,75.00,33.00,16.439511,80.630540,0.165000,190.379000187'
p38
aS'1,51,51,51,51,51,51,51,26,25,26,51,51,51,51,100,100,0,75.00,33.00,16.439521,80.630532,0.562000,193.035000086'
p39
aS'1,51,51,51,51,51,51,51,51,51,51,51,51,51,51,100,100,1,75.00,33.00,16.439533,80.630543,0.131000,203.654000044'
p40
aS'3,51,51,51,51,14,13,17,51,51,51,14,16,51,51,100,100,2,75.00,33.00,16.439507,80.630541,0.402000,207.637000084'
p41
aS'1,51,51,51,51,51,21,19,20,20,20,51,51,51,51,100,100,1,75.00,33.00,16.439492,80.630548,0.847000,208.942000151'
p42
aS'1,51,51,51,51,51,51,51,51,51,51,51,51,51,51,100,100,1,75.00,33.00,16.439474,80.630523,0.063000,220.902000189'
p43
aS'3,51,51,51,51,26,25,51,51,51,51,19,17,51,51,100,100,2,75.00,33.00,16.439470,80.630522,0.104000,223.536000013'
p44
aS'1,51,51,51,51,51,51,51,22,21,21,51,51,51,51,100,100,1,75.00,33.00,16.439453,80.630506,0.425000,227.538000107'
p45
aS'1,51,51,51,51,51,51,51,51,51,51,51,51,51,51,100,100,1,75.00,33.00,16.439430,80.630504,0.082000,238.15500021'
p46
aS'3,51,51,51,51,21,20,51,51,51,51,51,19,51,51,100,100,2,75.00,34.00,16.439426,80.630502,0.228000,242.140000105'
p47
aS'1,51,51,51,51,51,22,21,24,51,51,25,51,51,51,100,100,1,75.00,33.00,16.439433,80.630504,0.120000,243.502000093'
p48
aS'1,51,51,51,51,51,51,51,51,51,51,51,51,51,51,100,100,1,75.00,34.00,16.439478,80.630503,0.348000,254.083000183'
p49
aS'3,51,51,51,51,19,17,51,51,51,51,18,20,51,51,100,100,1,75.00,33.00,16.439484,80.630499,0.258000,256.736000061'
p50
aS'1,51,51,51,51,51,24,22,23,24,24,29,51,51,51,100,100,1,75.00,34.00,16.439485,80.630498,0.169000,258.041000128'
p51
aS'1,51,51,51,51,51,51,51,51,51,51,51,51,51,51,100,100,0,75.00,33.00,16.439481,80.630469,0.329000,270.00999999'
p52
aS'3,51,51,51,51,23,22,23,51,51,26,25,51,51,51,100,100,1,75.00,33.00,16.439473,80.630456,0.268000,273.996000051'
p53
aS'1,51,51,51,51,51,51,28,26,25,25,51,51,51,51,100,100,1,75.00,33.00,16.439470,80.630454,0.205000,275.322000027'
p54
aS'3,51,51,51,51,51,51,20,18,19,18,51,51,51,51,100,100,8,75.00,33.00,16.439461,80.630450,0.384000,276.669000149'
p55
aS'1,51,51,51,51,51,51,51,20,20,21,51,51,51,51,100,100,2,75.00,34.00,16.439457,80.630443,0.613000,277.994000196'
p56
aS'1,51,51,51,51,51,51,51,51,51,51,51,51,51,51,100,100,1,75.00,34.00,16.439464,80.630447,0.120000,288.639000177'
p57
aS'3,51,51,51,51,24,22,26,51,51,51,51,20,51,51,100,100,1,75.00,33.00,16.439460,80.630449,0.063000,292.624000072'
p58
aS'1,51,51,51,51,51,23,23,24,26,24,28,51,51,51,100,100,1,75.00,34.00,16.439461,80.630454,0.222000,293.929000139'
p59
aS'1,51,51,51,51,51,51,51,51,51,51,51,51,51,51,100,100,1,75.00,34.00,16.439454,80.630458,0.417000,304.575000048'
p60
aS'3,51,51,51,51,28,26,51,51,51,51,51,22,51,51,100,100,0,75.00,33.00,16.439445,80.630439,0.403000,307.234000206'
p61
aS'1,51,51,51,51,51,27,25,26,26,26,51,51,51,51,100,100,1,75.00,33.00,16.439452,80.630439,0.041000,308.563000202'
p62
aS'1,51,51,51,51,39,39,51,51,51,51,51,51,51,51,100,100,1,75.00,33.00,16.439482,80.630433,0.127000,317.850000143'
p63
aS'3,51,51,51,51,28,25,26,51,51,51,51,21,51,51,100,100,0,75.00,34.00,16.439487,80.630437,0.180000,320.484000206'
p64
aS'1,51,51,51,51,51,51,28,25,26,25,51,51,51,51,100,100,1,75.00,34.00,16.439494,80.630440,0.180000,323.167999983'
p65
aS'1,51,51,51,51,51,51,51,51,51,51,51,51,51,51,100,100,1,75.00,34.00,16.439485,80.630424,0.383000,332.455000162'
p66
aS'3,51,51,51,24,22,25,51,51,51,51,51,51,21,38,100,100,2,75.00,33.00,16.439475,80.630420,0.468000,336.440000057'
p67
aS'1,51,51,51,51,51,24,21,22,22,21,51,51,51,51,100,100,3,91.00,33.00,16.439456,80.630426,0.608000,339.096000195'
p68
aS'1,51,51,51,51,51,51,51,51,51,51,51,51,51,51,100,100,2,75.00,34.00,16.439466,80.630434,0.133000,351.046000004'
p69
aS'3,51,51,51,51,22,20,51,51,51,51,51,24,51,51,100,100,1,75.00,34.00,16.439480,80.630436,0.136000,353.700999975'
p70
aS'1,51,51,51,51,51,26,24,26,27,26,51,51,51,51,100,100,1,75.00,33.00,16.439479,80.630434,0.086000,355.029000044'
p71
aS'1,51,51,51,51,51,51,51,51,51,51,51,51,51,51,100,100,2,75.00,34.00,16.439513,80.630448,0.132000,365.648000002'
p72
aS'3,51,51,51,51,26,22,22,51,51,51,16,16,51,51,100,100,2,75.00,34.00,16.439509,80.630446,0.068000,368.305999994'
p73
aS'1,51,51,51,51,51,23,20,20,21,21,24,51,51,51,100,100,2,75.00,33.00,16.439511,80.630451,0.208000,369.630000114'
p74
aS'1,51,51,51,51,51,51,51,51,51,51,51,37,51,51,100,100,2,75.00,33.00,16.439487,80.630472,0.140000,381.572000027'
p75
aS'3,51,51,51,51,28,27,51,51,51,51,51,25,51,51,100,100,1,75.00,33.00,16.439486,80.630468,0.124000,382.898000002'
p76
aS'1,51,51,51,51,51,29,28,28,30,29,51,51,51,51,100,100,1,75.00,34.00,16.439483,80.630474,0.175000,384.226000071'
p77
aS'1,51,51,51,51,51,51,51,51,51,51,37,36,51,51,100,100,1,75.00,34.00,16.439484,80.630493,0.144000,396.174000025'
p78
aS'3,51,51,51,51,27,26,51,51,51,51,20,18,22,51,100,100,1,75.00,34.00,16.439481,80.630489,0.280000,397.480000019'
p79
aS'1,51,51,51,51,51,51,26,24,24,23,51,51,51,51,100,100,2,74.00,34.00,16.439478,80.630487,0.269000,400.151000023'
p80
aS'1,51,51,51,51,37,37,51,51,51,51,51,51,51,51,100,100,1,74.00,33.00,16.439487,80.630477,0.251000,409.436000109'
p81
aS'3,51,51,51,51,31,29,30,51,51,51,24,23,51,51,100,100,1,74.00,33.00,16.439490,80.630473,0.117000,410.745000124'
p82
aS'1,51,51,51,51,51,51,24,23,23,22,26,51,51,51,100,100,1,75.00,33.00,16.439489,80.630466,0.380000,413.417000055'
p83
aS'1,51,51,51,51,51,51,51,51,51,51,51,51,51,51,100,100,2,74.00,33.00,16.439504,80.630468,0.127000,425.337000132'
p84
aS'3,51,51,51,51,19,17,51,51,51,51,51,19,51,51,100,100,1,74.00,34.00,16.439498,80.630469,0.165000,427.991000175'
p85
aS'1,51,51,51,51,51,22,21,23,24,23,51,51,51,51,100,100,1,74.00,33.00,16.439505,80.630469,0.167000,429.370000124'
p86
aS'1,51,51,51,51,51,51,51,51,51,51,51,51,51,51,100,100,1,74.00,33.00,16.439510,80.630474,0.159000,439.937000036'
p87
aS'3,51,51,51,51,21,18,18,51,51,20,21,51,51,51,100,100,1,74.00,33.00,16.439507,80.630485,0.219000,442.611999989'
p88
aS'1,51,51,51,51,51,51,51,26,26,26,51,51,51,51,100,100,1,74.00,34.00,16.439503,80.630481,0.112000,443.938000202'
p89
aS'1,51,51,51,51,51,51,51,51,51,51,51,51,51,51,100,100,2,75.00,34.00,16.439473,80.630462,0.291000,454.559000015'
p90
aS'3,51,51,51,51,20,18,51,51,51,51,51,51,51,51,100,100,1,74.00,34.00,16.439485,80.630464,0.340000,457.213999987'
p91
aS'1,51,51,51,51,51,51,24,24,26,26,51,51,51,51,100,100,1,74.00,33.00,16.439485,80.630460,0.259000,458.522000074'
p92
aS'1,51,51,51,51,51,51,51,51,51,51,51,51,51,51,100,100,1,74.00,33.00,16.439514,80.630494,0.275000,470.496999979'
p93
aS'3,51,51,51,51,21,19,51,51,51,51,18,22,51,51,100,100,2,74.00,34.00,16.439495,80.630489,0.271000,473.150000095'
p94
aS'1,51,51,51,51,51,51,24,24,25,26,51,51,51,51,100,100,2,74.00,33.00,16.439497,80.630485,0.154000,474.453000069'
p95
aS'1,51,51,51,51,28,29,35,51,51,51,36,36,51,51,100,100,1,74.00,34.00,16.439483,80.630472,0.275000,485.073000193'
p96
aS'3,51,51,51,51,18,16,51,51,51,51,51,20,51,51,100,100,1,74.00,33.00,16.439477,80.630478,0.157000,487.753000021'
p97
aS'1,51,51,51,51,51,27,22,23,23,23,51,51,51,51,100,100,2,74.00,33.00,16.439483,80.630480,0.126000,489.08100009'
p98
aS'3,51,51,51,51,51,51,17,15,14,14,51,51,51,51,100,100,2,74.00,33.00,16.439496,80.630466,0.424000,491.729000092'
p99
aS'1,51,51,51,51,36,36,37,51,51,51,51,51,51,51,100,100,1,74.00,33.00,16.439523,80.630480,0.172000,501.018000126'
p100
aS'3,51,51,51,51,25,22,22,51,51,51,16,16,51,51,100,100,2,74.00,33.00,16.439529,80.630476,0.543000,503.67200017'
p101
aS'1,51,51,51,51,51,21,19,20,22,21,51,51,51,51,100,100,1,74.00,34.00,16.439527,80.630475,0.339000,504.976000071'
p102
aS'1,51,51,51,51,36,37,51,51,51,51,51,51,51,51,100,100,1,74.00,34.00,16.439490,80.630440,0.431000,516.9150002'
p103
aS'3,51,51,51,51,25,24,51,51,51,51,19,17,51,51,100,100,2,74.00,33.00,16.439489,80.630444,0.275000,519.596000195'
p104
aS'1,51,51,51,51,51,51,30,28,28,28,51,51,51,51,100,100,1,74.00,33.00,16.439495,80.630443,0.209000,522.285000086'
p105
aS'1,51,51,51,51,51,51,51,51,51,51,51,51,51,51,100,100,1,75.00,33.00,16.439466,80.630373,0.570000,532.903000116'
p106
aS'3,51,51,51,51,26,25,51,51,51,51,19,17,51,51,100,100,2,74.00,33.00,16.439449,80.630357,0.184000,535.534000158'
p107
aS'1,51,51,51,51,51,51,26,25,25,26,51,51,51,51,100,100,1,74.00,34.00,16.439430,80.630342,0.304000,538.211000204'
p108
aS'1,51,51,51,51,51,51,51,51,51,51,51,39,51,51,100,100,2,74.00,33.00,16.439459,80.630344,0.325000,550.166000128'
p109
aS'3,51,51,51,51,17,17,19,51,51,21,19,51,51,51,100,100,1,74.00,33.00,16.439464,80.630355,0.367000,552.811000109'
p110
aS'1,51,51,51,51,51,51,27,25,25,25,51,51,51,51,100,100,1,75.00,34.00,16.439477,80.630360,0.618000,554.173000097'
p111
aS'3,51,51,51,51,51,51,22,20,19,20,51,51,51,51,100,100,1,74.00,33.00,16.439496,80.630365,1.130000,555.468000174'
p112
aS'1,51,51,51,51,51,51,51,22,21,23,51,51,51,51,100,100,1,75.00,33.00,16.439509,80.630371,0.911000,556.771000147'
p113
aS'1,51,51,51,51,51,51,51,51,51,51,51,51,51,51,100,100,1,74.00,33.00,16.439533,80.630404,0.152000,568.745000124'
p114
aS'3,51,51,51,51,24,23,51,51,51,51,17,17,51,51,100,100,2,74.00,33.00,16.439537,80.630413,0.258000,571.396000147'
p115
aS'1,51,51,51,51,51,20,20,23,51,21,24,51,51,51,100,100,2,74.00,34.00,16.439540,80.630420,0.131000,572.979000092'
p116
aS'1,51,51,51,51,51,51,51,51,51,51,51,51,51,51,100,100,1,74.00,33.00,16.439529,80.630439,0.110000,589.986999989'
p117
aS'3,51,51,51,51,23,22,51,51,51,51,51,26,51,51,100,100,2,74.00,33.00,16.439526,80.630437,0.117000,592.644999981'
p118
aS'1,51,51,51,51,51,51,27,27,28,28,30,51,51,51,100,100,2,74.00,34.00,16.439524,80.630435,0.141000,593.972000122'
p119
aS'1,51,51,51,51,51,51,51,51,51,51,51,51,51,51,100,100,1,75.00,33.00,16.439509,80.630451,0.406000,607.226999998'
p120
aS'3,51,51,51,51,35,33,34,51,51,51,51,27,51,51,100,100,2,75.00,33.00,16.439511,80.630453,0.201000,608.554000139'
p121
aS'1,51,51,51,51,51,51,51,51,51,51,51,51,51,51,100,100,2,74.00,33.00,16.439489,80.630420,0.505000,617.879000187'
p122
aS'3,51,51,51,34,31,32,51,51,51,51,51,51,23,51,100,100,1,75.00,33.00,16.439487,80.630423,0.375000,620.515000105'
p123
aS'1,51,51,51,51,51,51,32,30,30,31,51,51,51,51,100,100,1,75.00,33.00,16.439497,80.630428,0.057000,623.173000097'
p124
aS'1,51,51,51,51,51,51,51,51,51,51,51,51,51,51,100,100,1,74.00,33.00,16.439503,80.630468,0.398000,633.792999983'
p125
aS'3,51,51,51,51,33,31,36,51,51,51,51,27,51,51,100,100,2,74.00,34.00,16.439492,80.630467,0.347000,636.450000048'
p126
aS'1,51,51,51,51,51,51,32,31,30,30,51,51,51,51,100,100,1,74.00,33.00,16.439482,80.630461,0.313000,639.130000114'
p127
aS'3,51,51,51,51,51,51,24,24,24,22,51,51,51,51,100,100,1,74.00,34.00,16.439478,80.630455,0.511000,640.45600009'
p128
aS'1,51,51,51,51,51,51,51,30,30,51,51,51,51,51,100,100,2,74.00,34.00,16.439477,80.630463,0.097000,641.788000107'
p129
aS'1,51,51,51,51,51,51,51,51,51,51,39,36,51,51,100,100,2,74.00,34.00,16.439476,80.630464,0.037000,649.758000135'
p130
aS'3,51,51,51,32,27,27,51,51,51,51,22,19,20,51,100,100,0,74.00,33.00,16.439475,80.630463,0.091000,651.061000109'
p131
aS'1,51,51,51,51,51,51,24,24,24,24,51,51,51,51,100,100,1,74.00,33.00,16.439478,80.630458,0.194000,653.734000206'
p132
aS'1,51,51,51,51,51,51,51,51,51,51,51,51,51,51,100,100,1,74.00,33.00,16.439507,80.630477,0.377000,661.696000099'
p133
aS'3,51,51,51,51,18,16,51,51,51,51,51,15,51,51,100,100,1,74.00,33.00,16.439530,80.630476,0.390000,665.68200016'
p134
aS'1,51,51,51,51,51,51,51,51,51,51,51,51,51,51,100,100,2,74.00,33.00,16.439489,80.630454,0.325000,676.34800005'
p135
aS'3,51,51,51,51,33,33,51,51,51,51,29,24,25,51,100,100,2,74.00,34.00,16.439495,80.630462,0.241000,677.647000074'
p136
aS'1,51,51,51,51,51,51,26,24,24,24,51,51,51,51,100,100,2,74.00,33.00,16.439499,80.630469,0.190000,681.629000187'
p137
aS'1,51,51,51,51,51,51,51,51,51,51,51,51,51,51,100,100,2,74.00,33.00,16.439461,80.630480,0.244000,694.92200017'
p138
aS'3,51,51,51,29,22,22,51,51,51,51,20,19,51,51,100,100,1,74.00,34.00,16.439459,80.630478,0.111000,697.578999996'
p139
aS'1,51,51,51,51,51,51,51,30,29,30,51,51,51,51,100,100,1,74.00,33.00,16.439450,80.630468,0.250000,700.228000164'
p140
aS'1,51,51,51,51,51,51,51,51,51,51,51,51,51,51,100,100,2,74.00,34.00,16.439473,80.630471,0.225000,712.1650002'
p141
aS'3,51,51,51,51,21,19,20,51,51,25,22,51,51,51,100,100,2,74.00,34.00,16.439484,80.630468,0.274000,716.17200017'
p142
aS'1,51,51,51,51,51,51,30,26,26,27,51,51,51,51,100,100,2,74.00,34.00,16.439488,80.630469,0.244000,717.498000145'
p143
aS'1,51,51,51,51,51,51,51,51,51,51,51,51,51,51,100,100,1,74.00,33.00,16.439471,80.630453,0.129000,750.710000038'
p144
aS'3,51,51,51,51,34,32,51,51,51,51,27,28,51,51,100,100,2,74.00,34.00,16.439468,80.630451,0.269000,753.368000031'
p145
aS'1,51,51,51,51,51,31,31,32,34,33,34,51,51,51,100,100,2,74.00,34.00,16.439466,80.630448,0.188000,754.669000149'
p146
aS'1,51,51,51,51,51,51,51,51,51,51,51,51,51,51,100,100,2,74.00,34.00,16.439466,80.630445,0.268000,766.67200017'
p147
aS'3,51,51,51,51,17,17,51,51,51,51,19,21,51,51,100,100,2,74.00,33.00,16.439465,80.630442,0.148000,770.640000105'
p148
aS'1,51,51,51,51,51,51,24,25,25,26,51,51,51,51,100,100,2,74.00,34.00,16.439467,80.630447,0.029000,771.945000172'
p149
aS'3,51,51,51,51,51,51,51,51,51,51,51,51,51,51,100,100,1,74.00,34.00,16.439463,80.630467,0.119000,783.917000055'
p150
aS'1,51,51,51,51,51,51,51,51,51,51,51,51,51,51,100,100,1,74.00,34.00,16.439463,80.630466,0.078000,785.246000051'
p151
aS'3,51,51,51,51,51,29,29,51,51,51,24,29,51,51,100,100,1,74.00,34.00,16.439460,80.630466,0.161000,787.904000044'
p152
aS'1,51,51,51,51,51,51,31,30,31,32,51,51,51,51,100,100,1,74.00,34.00,16.439459,80.630465,0.128000,789.232000113'
p153
aS'1,51,51,51,51,37,39,51,51,51,51,51,51,51,51,100,100,2,74.00,33.00,16.439475,80.630482,0.283000,798.534000158'
p154
aS'3,51,51,51,51,24,23,51,51,51,51,22,21,51,51,100,100,2,74.00,34.00,16.439483,80.630495,0.227000,801.183000088'
p155
aS'1,51,51,51,51,51,51,51,33,33,34,51,51,51,51,100,100,2,74.00,34.00,16.439480,80.630492,0.139000,803.845000029'
p156
aS'3,51,51,51,51,51,51,51,51,51,51,51,51,51,51,100,100,2,74.00,33.00,16.439456,80.630490,0.029000,815.800000191'
p157
aS'1,51,51,51,51,51,51,51,51,51,51,51,51,51,51,100,100,1,74.00,34.00,16.439460,80.630495,0.259000,817.132000208'
p158
aS'3,51,51,51,51,29,26,27,51,51,51,21,20,51,51,100,100,2,74.00,34.00,16.439475,80.630499,0.475000,819.7900002'
p159
aS'1,51,51,51,51,51,51,51,30,29,30,51,51,51,51,100,100,2,74.00,34.00,16.439479,80.630497,0.328000,822.445000172'
p160
aS'1,51,51,51,51,51,51,51,51,51,51,51,51,51,51,100,100,2,74.00,34.00,16.439465,80.630526,0.556000,833.072000027'
p161
aS'3,51,51,51,51,23,22,24,51,51,51,51,51,51,51,100,100,2,74.00,34.00,16.439484,80.630527,0.237000,837.058000088'
p162
aS'1,51,51,51,51,51,51,28,28,28,28,32,51,51,51,100,100,3,74.00,34.00,16.439482,80.630524,0.040000,838.384000063'
p163
aS'3,51,51,51,51,51,51,22,22,22,20,24,51,51,51,100,100,2,74.00,33.00,16.439479,80.630520,0.175000,839.688000202'
p164
aS'1,51,51,51,51,51,51,51,23,23,24,51,51,51,51,100,100,2,74.00,34.00,16.439480,80.630519,0.147000,841.016000032'
p165
aS'1,51,51,51,51,51,51,51,51,51,51,51,51,51,51,100,100,2,74.00,33.00,16.439486,80.630516,0.192000,852.963000059'
p166
aS'3,51,51,51,51,22,21,51,51,51,51,51,21,51,51,100,100,2,74.00,34.00,16.439484,80.630498,0.381000,855.618000031'
p167
aS'1,51,51,51,51,51,25,24,25,26,25,51,51,51,51,100,100,2,74.00,34.00,16.439487,80.630499,0.284000,856.944000006'
p168
aS'1,51,51,51,51,51,51,51,51,51,51,51,51,51,51,100,100,2,74.00,33.00,16.439499,80.630487,0.205000,871.545000076'
p169
aS'3,51,51,51,51,31,30,51,51,51,51,24,21,51,51,100,100,1,74.00,33.00,16.439514,80.630473,0.477000,874.203999996'
p170
aS'1,51,51,51,51,51,51,30,27,27,27,51,51,51,51,100,100,2,74.00,33.00,16.439529,80.630467,0.619000,876.854000092'
p171
aS'1,51,51,51,51,51,51,51,51,51,51,51,51,51,51,100,100,2,74.00,34.00,16.439509,80.630488,0.418000,892.792999983'
p172
aS'3,51,51,51,51,24,22,51,51,51,51,51,21,51,51,100,100,3,74.00,34.00,16.439502,80.630470,0.280000,896.798000097'
p173
aS'1,51,51,51,51,51,51,51,30,30,32,51,51,51,51,100,100,2,74.00,34.00,16.439504,80.630475,0.209000,899.468000174'
p174
aS'1,51,51,51,51,37,38,51,51,51,51,51,51,51,51,100,100,2,74.00,33.00,16.439511,80.630476,0.263000,911.394000053'
p175
aS'3,51,51,51,51,28,26,27,51,51,51,51,21,51,51,100,100,2,74.00,34.00,16.439507,80.630480,0.230000,914.053000212'
p176
aS'1,51,51,51,51,51,51,51,27,26,29,51,51,51,51,100,100,1,74.00,34.00,16.439502,80.630483,0.315000,916.723999977'
p177
aS'1,51,51,51,38,39,51,51,51,51,51,51,51,51,51,100,100,2,74.00,98.00,16.439488,80.630510,0.309000,925.999000072'
p178
aS'3,51,51,51,15,13,51,51,51,51,51,51,51,51,51,100,100,2,74.00,34.00,16.439491,80.630504,0.417000,930.009000063'
p179
aS'1,51,51,51,51,51,51,51,51,51,51,51,51,51,51,100,100,1,74.00,34.00,16.439488,80.630475,0.320000,941.995000124'
p180
aS'3,51,51,51,51,30,28,51,51,51,51,23,20,51,51,100,100,3,74.00,34.00,16.439471,80.630474,0.359000,944.631000042'
p181
aS'1,51,51,51,51,51,51,24,24,25,26,51,51,51,51,100,100,2,74.00,33.00,16.439476,80.630463,0.309000,947.34800005'
p182
aS'1,51,51,51,51,51,51,51,51,51,51,51,51,51,51,100,100,2,74.00,34.00,16.439473,80.630476,0.115000,961.921000004'
p183
aS'3,51,51,51,51,31,30,51,51,51,51,25,23,51,51,100,100,2,74.00,34.00,16.439478,80.630474,0.227000,963.228000164'
p184
aS'1,51,51,51,51,51,51,30,29,29,32,51,51,51,51,100,100,2,74.00,34.00,16.439480,80.630470,0.243000,965.909000158'
p185
aS'1,51,51,51,51,51,51,51,51,51,51,51,51,51,51,100,100,2,74.00,34.00,16.439492,80.630478,0.050000,979.167000055'
p186
aS'3,51,51,51,25,19,20,51,51,51,51,51,21,51,51,100,100,2,74.00,34.00,16.439483,80.630464,0.486000,983.177000046'
p187
aS'1,51,51,51,51,51,51,51,32,33,51,51,51,51,51,100,100,3,74.00,34.00,16.439479,80.630471,0.158000,985.828999996'
p188
aS'1,51,51,51,51,51,51,51,51,51,51,51,51,51,51,100,100,2,74.00,33.00,16.439464,80.630465,0.306000,999.123000145'
p189
aS'3,51,51,51,51,29,27,27,51,51,51,51,23,51,51,100,100,1,74.00,34.00,16.439462,80.630444,0.514000,1001.76900005'
p190
aS'1,51,51,51,51,51,51,51,28,29,31,51,51,51,51,100,100,2,74.00,34.00,16.439460,80.630445,0.255000,1004.41799998'
p191
aS'1,51,51,51,51,51,51,51,51,51,51,51,51,51,51,100,100,3,74.00,34.00,16.439459,80.630396,0.317000,1017.72100019'
p192
aS'3,51,51,51,51,26,24,51,51,51,51,20,17,51,51,100,100,2,74.00,34.00,16.439455,80.630386,0.252000,1020.37900019'
p193
aS'1,51,51,51,51,51,51,28,25,24,24,51,51,51,51,100,100,2,74.00,34.00,16.439467,80.630376,0.349000,1023.02800012'
p194
aS'1,51,51,51,51,51,51,51,51,51,51,51,51,51,51,100,100,2,74.00,34.00,16.439524,80.630404,0.276000,1036.28000021'
p195
aS'3,51,51,51,51,20,19,51,51,51,51,51,20,51,51,100,100,1,74.00,34.00,16.439534,80.630412,0.206000,1040.27200007'
p196
aS'1,51,51,51,51,51,51,51,29,29,30,51,51,51,51,100,100,2,74.00,34.00,16.439530,80.630412,0.047000,1042.9230001'
p197
aS'1,51,51,51,51,51,51,51,51,51,51,51,51,51,51,100,100,2,74.00,34.00,16.439529,80.630443,0.190000,1054.89400005'
p198
aS'3,51,51,51,51,28,26,51,51,51,51,21,19,22,51,100,100,3,74.00,34.00,16.439534,80.630453,0.296000,1057.52800012'
p199
aS'1,51,51,51,51,51,51,25,24,25,27,51,51,51,51,100,100,3,74.00,34.00,16.439542,80.630448,0.228000,1060.20300007'
p200
aS'1,51,51,51,51,51,51,51,51,51,51,51,51,51,51,100,100,1,74.00,34.00,16.439536,80.630445,0.054000,1072.41900015'
p201
aS'3,51,51,51,51,27,25,28,51,51,51,19,18,51,51,100,100,2,74.00,34.00,16.439534,80.630460,0.294000,1074.78800011'
p202
aS'1,51,51,51,51,51,51,51,25,26,51,51,51,51,51,100,100,2,74.00,34.00,16.439536,80.630462,0.352000,1077.46600008'
p203
aS'1,51,51,51,51,51,51,51,51,51,51,51,51,51,51,100,100,3,74.00,34.00,16.439525,80.630456,0.445000,1093.38300014'
p204
aS'3,51,51,51,51,51,18,17,51,51,51,17,51,51,51,100,100,2,74.00,34.00,16.439522,80.630455,0.352000,1097.37900019'
p205
aS'1,51,51,51,51,51,51,23,23,23,23,51,51,51,51,100,100,2,74.00,33.00,16.439520,80.630455,0.172000,1098.6960001'
p206
aS'1,51,51,51,51,51,51,51,51,51,51,51,51,51,51,100,100,2,74.00,34.00,16.439491,80.630469,0.277000,1115.94200015'
p207
aS'1,51,51,51,51,51,51,51,51,51,51,51,51,51,51,100,100,1,74.00,33.00,16.439503,80.630453,0.453000,1122.5860002'
p208
aS'1,51,51,51,51,51,51,51,51,51,51,51,51,51,51,100,100,2,74.00,34.00,16.439550,80.630401,0.380000,1143.85700011'
p209
aS'3,51,51,51,51,23,21,21,51,51,51,51,27,51,51,100,100,1,74.00,34.00,16.439537,80.630413,0.466000,1146.50800014'
p210
aS'1,51,51,51,51,51,51,27,27,28,30,51,51,51,51,100,100,1,74.00,34.00,16.439529,80.630428,0.221000,1147.81900001'
p211
aS'3,51,51,51,51,51,51,51,51,51,51,51,51,51,51,100,100,1,74.00,34.00,16.439478,80.630463,0.719000,1161.12199998'
p212
aS'1,51,51,51,51,51,51,51,51,51,51,51,51,51,51,100,100,2,74.00,34.00,16.439478,80.630467,0.553000,1162.49100018'
p213
aS'3,51,51,51,51,51,23,23,26,28,26,27,51,51,51,100,100,1,74.00,34.00,16.439480,80.630467,0.257000,1166.4380002'
p214
aS'1,51,51,51,51,32,34,51,51,51,51,51,51,51,51,100,100,1,74.00,34.00,16.439463,80.630438,0.159000,1175.70600009'
p215
aS'3,51,51,51,51,22,21,51,51,51,51,51,18,51,51,100,100,2,74.00,34.00,16.439428,80.630386,1.312000,1178.38700008'
p216
aS'1,51,51,51,51,51,51,51,31,31,37,51,51,51,51,100,100,2,74.00,34.00,16.439442,80.630326,1.355000,1181.02100015'
p217
aS'1,51,51,51,51,51,51,51,51,51,51,51,39,38,51,100,100,1,74.00,34.00,16.439404,80.630322,0.184000,1197.01600003'
p218
aS'3,51,51,51,51,15,16,51,51,51,51,51,18,51,51,100,100,2,74.00,34.00,16.439398,80.630340,0.318000,1199.671'
p219
aS'1,51,51,51,51,51,51,51,27,27,28,51,51,51,51,100,100,2,74.00,33.00,16.439394,80.630356,0.650000,1202.32500005'
p220
aS'1,51,51,51,51,51,51,51,51,51,51,51,51,51,51,100,100,2,74.00,34.00,16.439400,80.630412,0.095000,1216.90900016'
p221
aS'3,51,51,51,26,21,22,51,51,51,51,22,21,51,51,100,100,1,74.00,34.00,16.439403,80.630437,0.370000,1219.56200004'
p222
aS'1,51,51,51,51,51,51,35,31,30,30,51,51,51,51,100,100,1,74.00,34.00,16.439402,80.630460,0.464000,1222.24900007'
p223
aS'1,51,51,51,51,51,51,51,51,51,51,51,51,51,51,100,100,1,74.00,33.00,16.439438,80.630494,0.664000,1234.19500017'
p224
aS'3,51,51,51,51,26,25,51,51,51,51,51,18,51,51,100,100,1,74.00,34.00,16.439445,80.630511,0.581000,1236.82599998'
p225
aS'1,51,51,51,51,51,51,28,27,28,30,51,51,51,51,100,100,2,74.00,34.00,16.439442,80.630506,0.212000,1239.48200011'
p226
aS'1,51,51,51,51,34,36,51,51,51,51,51,51,51,51,100,100,1,74.00,34.00,16.439480,80.630450,0.380000,1251.45099998'
p227
aS'3,51,51,51,51,51,18,51,51,51,51,19,21,51,51,100,100,2,74.00,34.00,16.439504,80.630456,0.289000,1254.11000013'
p228
aS'1,51,51,51,51,51,28,23,24,24,25,51,51,51,51,100,100,2,74.00,34.00,16.439491,80.630439,0.452000,1255.41300011'
p229
aS'1,51,51,51,51,51,51,51,51,51,51,51,51,51,51,100,100,1,74.00,34.00,16.439493,80.630449,0.239000,1270.01900005'
p230
aS'3,51,51,51,51,27,27,51,51,51,51,51,19,21,51,100,100,1,74.00,34.00,16.439496,80.630432,0.669000,1272.6880002'
p231
aS'1,51,51,51,51,51,51,51,51,51,51,51,51,51,51,100,100,2,74.00,34.00,16.439437,80.630377,0.436000,1284.62700009'
p232
aS'3,51,51,51,51,22,20,51,51,51,51,19,18,51,51,100,100,2,74.00,34.00,16.439451,80.630381,0.322000,1288.63300014'
p233
aS'1,51,51,51,51,51,51,51,25,24,28,51,51,51,51,100,100,2,74.00,34.00,16.439456,80.630370,0.427000,1291.28800011'
p234
aS'1,51,51,51,51,51,51,51,51,51,51,51,51,51,51,100,100,2,74.00,34.00,16.439358,80.630367,0.454000,1304.56400013'
p235
aS'3,51,51,51,51,27,25,51,51,51,51,51,19,51,51,100,100,1,74.00,34.00,16.439345,80.630382,0.308000,1307.19700003'
p236
aS'1,51,51,51,51,51,51,27,25,24,25,51,51,51,51,100,100,2,74.00,34.00,16.439349,80.630382,1.233000,1309.85000014'
p237
aS'1,51,51,51,51,51,51,51,51,51,51,51,51,51,51,100,100,1,74.00,34.00,16.439413,80.630400,0.496000,1321.81800008'
p238
aS'3,51,51,51,22,19,22,51,51,51,51,19,18,51,51,100,100,1,74.00,34.00,16.439432,80.630404,0.572000,1324.44800019'
p239
aS'1,51,51,51,51,51,51,30,27,27,27,51,51,51,51,100,100,1,74.00,34.00,16.439447,80.630411,0.441000,1327.10500002'
p240
aS'1,51,51,51,51,51,51,51,51,51,51,51,51,51,51,100,100,1,74.00,34.00,16.439390,80.630365,0.266000,3.61800003052'
p241
aS'3,51,51,51,51,20,19,51,51,51,51,51,18,51,51,100,100,2,74.00,33.00,16.439398,80.630319,0.959000,6.29000020027'
p242
aS'1,51,51,51,51,51,51,51,30,30,32,51,51,51,51,100,100,2,74.00,34.00,16.439388,80.630287,0.706000,8.94800019264'
p243
aS'1,51,51,51,51,51,51,51,51,51,51,51,51,51,51,100,100,2,74.00,34.00,16.439473,80.630292,1.456000,22.2580001354'
p244
aS'3,51,51,51,51,21,19,51,51,51,51,14,13,51,51,100,100,1,74.00,34.00,16.439494,80.630314,1.081000,26.1940000057'
p245
aS'1,51,51,51,51,51,51,51,25,25,26,51,51,51,51,100,100,1,74.00,34.00,16.439506,80.630315,0.904000,28.8660001755'
p246
aS'1,51,51,51,51,51,51,51,51,51,51,51,51,51,51,100,100,2,74.00,34.00,16.439423,80.630355,0.930000,41.2680001259'
p247
aS'3,51,51,51,51,22,19,19,51,51,51,51,51,51,51,100,100,1,74.00,34.00,16.439460,80.630372,0.311000,44.8050000668'
p248
aS'1,51,51,51,51,51,51,22,22,23,23,51,51,51,51,100,100,3,74.00,34.00,16.439468,80.630369,0.238000,46.1080000401'
p249
aS'1,51,51,51,51,51,51,51,51,51,51,51,51,51,51,100,100,2,74.00,33.00,16.439550,80.630422,0.416000,60.731000185'
p250
aS'3,51,51,51,17,15,15,51,51,51,51,51,17,51,51,100,100,2,74.00,34.00,16.439527,80.630411,0.382000,63.367000103'
p251
aS'1,51,51,51,51,51,51,51,27,27,28,51,51,51,51,100,100,1,74.00,34.00,16.439497,80.630431,0.380000,66.0410001278'
p252
aS'1,51,51,51,51,51,51,51,51,51,51,51,51,51,51,100,100,2,74.00,34.00,16.439463,80.630445,0.591000,79.3580000401'
p253
aS'3,51,51,51,51,21,21,51,51,51,51,17,13,51,51,100,100,2,74.00,34.00,16.439486,80.630442,0.143000,82.0099999905'
p254
aS'1,51,51,51,51,51,51,51,27,27,51,51,51,51,51,100,100,2,74.00,34.00,16.439498,80.630427,0.313000,85.0320000648'
p255
aS'1,51,51,51,51,51,51,51,34,33,35,51,51,51,51,100,100,2,74.00,34.00,16.439544,80.630437,0.746000,88.6600000858'
p256
aS'1,51,51,51,51,51,51,51,51,51,51,51,51,51,51,100,100,2,74.00,34.00,16.439604,80.630471,0.247000,100.614000082'
p257
aS'3,51,51,51,30,27,29,51,51,51,51,51,51,20,51,100,100,2,74.00,34.00,16.439597,80.630497,0.588000,104.643000126'
p258
aS'1,51,51,51,51,51,51,51,31,31,34,51,51,51,51,100,100,2,74.00,34.00,16.439602,80.630522,0.420000,108.583000183'
p259
aS'1,51,51,51,51,51,51,51,51,51,51,51,51,51,51,100,100,3,74.00,34.00,16.439627,80.630628,0.671000,125.836000204'
p260
aS'3,51,51,51,51,11,12,51,51,51,51,15,13,51,51,100,100,2,73.00,34.00,16.439595,80.630617,0.407000,132.465000153'
p261
aS'1,51,51,51,51,51,51,22,22,23,24,51,51,51,51,100,100,1,74.00,34.00,16.439598,80.630618,0.542000,135.136000156'
p262
aS'1,51,51,51,51,51,51,51,51,51,51,51,51,51,51,100,100,1,73.00,34.00,16.439561,80.630675,0.530000,149.744000196'
p263
aS'3,51,51,51,51,11,10,13,51,51,16,13,51,51,51,100,100,2,74.00,34.00,16.439521,80.630671,0.269000,155.048000097'
p264
aS'1,51,51,51,51,51,51,20,20,20,21,51,51,51,51,100,100,2,73.00,34.00,16.439518,80.630672,0.317000,156.375'
p265
aS'1,51,51,51,51,51,51,51,51,51,51,51,51,51,51,100,100,1,74.00,34.00,16.439490,80.630670,0.294000,169.641000032'
p266
aS'3,51,51,51,51,18,15,16,51,51,51,51,13,51,51,100,100,2,74.00,34.00,16.439483,80.630676,0.707000,173.621000051'
p267
aS'1,51,51,51,51,51,51,51,30,27,51,51,51,51,51,100,100,1,74.00,34.00,16.439463,80.630703,1.268000,177.610000134'
p268
aS'1,51,51,51,51,51,51,51,51,51,51,51,51,51,51,100,100,1,73.00,34.00,16.439426,80.630635,0.275000,190.88499999'
p269
aS'3,51,51,51,51,21,20,51,51,51,51,18,18,51,51,100,100,2,74.00,34.00,16.439429,80.630629,0.205000,193.539000034'
p270
aS'1,51,51,51,51,51,51,51,31,31,34,51,51,51,51,100,100,1,74.00,34.00,16.439441,80.630613,0.296000,196.197000027'
p271
aS'1,51,51,51,51,51,51,51,51,51,51,51,51,51,51,100,100,2,74.00,34.00,16.439465,80.630554,0.415000,206.818000078'
p272
aS'3,51,51,51,51,23,21,51,51,51,51,51,15,51,51,100,100,1,74.00,34.00,16.439467,80.630536,0.619000,209.476000071'
p273
aS'1,51,51,51,51,51,51,51,28,27,51,51,51,51,51,100,100,0,73.00,34.00,16.439459,80.630548,0.368000,212.130000114'
p274
aS'1,51,51,51,51,51,51,51,51,51,51,51,51,51,51,100,100,1,74.00,34.00,16.439465,80.630548,0.653000,224.082000017'
p275
aS'3,51,51,51,51,18,19,51,51,51,51,21,51,51,51,100,100,2,74.00,34.00,16.439451,80.630535,0.437000,226.741000175'
p276
aS'1,51,51,51,51,51,51,25,26,27,27,51,51,51,51,100,100,2,74.00,34.00,16.439450,80.630525,0.480000,228.0400002'
p277
aS'1,51,51,51,51,51,51,51,51,51,51,51,51,51,51,100,100,1,74.00,34.00,16.439180,80.630539,1.589000,240.020000219'
p278
aS'3,51,51,51,51,17,17,18,51,51,51,51,51,51,51,100,100,1,74.00,34.00,16.439166,80.630570,1.487000,242.674000025'
p279
aS'1,51,51,51,51,51,51,26,25,26,29,51,51,51,51,100,100,1,74.00,33.00,16.439175,80.630572,1.119000,243.999000072'
p280
aS'1,51,51,51,51,51,51,51,51,51,51,51,36,51,51,100,100,1,74.00,34.00,16.439303,80.630478,0.542000,255.947000027'
p281
aS'3,51,51,51,51,27,26,51,51,51,51,22,18,21,51,100,100,2,74.00,33.00,16.439318,80.630470,0.693000,257.258000135'
p282
aS'1,51,51,51,51,51,51,24,24,25,25,51,51,51,51,100,100,2,74.00,34.00,16.439386,80.630451,1.397000,259.929000139'
p283
aS'1,51,51,51,51,51,51,51,51,51,51,51,51,51,51,100,100,1,74.00,34.00,16.439515,80.630433,0.789000,273.209000111'
p284
aS'3,51,51,51,51,18,16,17,51,51,21,18,51,51,51,100,100,2,74.00,34.00,16.439477,80.630454,0.274000,277.193000078'
p285
aS'1,51,51,51,51,51,51,27,25,26,29,51,51,51,51,100,100,1,74.00,34.00,16.439449,80.630451,0.509000,278.5'
p286
aS'1,51,51,51,51,51,51,51,51,51,51,51,51,51,51,100,100,2,74.00,34.00,16.439432,80.630469,0.672000,291.811000109'
p287
aS'3,51,51,51,51,24,23,51,51,51,51,51,16,51,51,100,100,0,74.00,34.00,16.439432,80.630469,0.672000,294.441000223'
p288
aS'1,51,51,51,51,51,51,51,24,23,26,51,51,51,51,100,100,0,74.00,34.00,16.439432,80.630469,0.672000,297.096000195'
p289
aS'1,51,51,51,51,51,51,51,51,51,51,51,51,51,51,100,100,0,74.00,34.00,16.439432,80.630469,0.672000,309.084000111'
p290
aS'3,51,51,51,51,51,28,51,51,51,51,51,20,51,51,100,100,1,74.00,34.00,16.439432,80.630469,0.672000,311.715000153'
p291
aS'1,51,51,51,51,51,51,25,25,25,26,51,51,51,51,100,100,2,74.00,34.00,16.439432,80.630469,0.672000,314.368000031'
p292
aS'1,51,51,51,51,51,51,51,51,51,51,51,51,51,51,100,100,1,74.00,34.00,16.439432,80.630469,0.672000,326.342000008'
p293
aS'3,51,51,51,51,23,20,21,51,51,24,23,51,51,51,100,100,1,74.00,33.00,16.439432,80.630469,0.672000,330.328000069'
p294
aS'1,51,51,51,51,51,51,31,29,30,31,51,51,51,51,100,100,2,74.00,34.00,16.439432,80.630469,0.672000,331.651000023'
p295
aS'1,51,51,51,51,51,51,51,51,51,51,51,51,51,51,100,100,2,74.00,34.00,16.439432,80.630469,0.672000,343.613000154'
p296
aS'3,51,51,51,51,25,23,51,51,51,51,51,16,18,51,100,100,2,73.00,34.00,16.439432,80.630469,0.672000,346.25'
p297
aS'1,51,51,51,51,51,51,26,25,26,30,51,51,51,51,100,100,1,73.00,34.00,16.439432,80.630469,0.672000,348.910000086'
p298
aS'1,51,51,51,51,51,51,51,51,51,51,51,51,51,51,100,100,1,74.00,34.00,16.439432,80.630469,0.672000,360.856000185'
p299
aS'3,51,51,51,51,28,26,51,51,51,51,51,21,51,51,100,100,1,73.00,34.00,16.439432,80.630469,0.672000,363.53000021'
p300
aS'1,51,51,51,51,51,51,51,31,32,34,51,51,51,51,100,100,1,73.00,34.00,16.439432,80.630469,0.672000,366.18900013'
p301
aS'1,51,51,51,51,51,51,51,51,51,51,51,51,51,51,100,100,2,73.00,34.00,16.439432,80.630469,0.672000,378.149000168'
p302
aS'3,51,51,51,51,28,27,30,51,51,51,51,20,51,51,100,100,1,73.00,33.00,16.439432,80.630469,0.672000,381.088000059'
p303
aS'1,51,51,51,51,51,51,28,26,28,30,51,51,51,51,100,100,1,73.00,34.00,16.439432,80.630469,0.672000,383.438000202'
p304
aS'1,51,51,51,51,51,51,51,51,51,51,51,51,51,51,100,100,1,73.00,34.00,16.439432,80.630469,0.672000,399.411000013'
p305
aS'3,51,51,51,51,22,20,20,51,51,23,22,51,51,51,100,100,1,73.00,34.00,16.439432,80.630469,0.672000,403.396000147'
p306
aS'1,51,51,51,51,51,51,29,28,29,31,51,51,51,51,100,100,1,73.00,33.00,16.439432,80.630469,0.672000,404.724000216'
p307
aS'1,51,51,51,51,51,51,51,51,51,51,51,51,51,51,100,100,2,73.00,33.00,16.439432,80.630469,0.672000,419.318000078'
p308
aS'3,51,51,51,51,17,16,18,51,51,51,51,51,51,51,100,100,2,73.00,34.00,16.439432,80.630469,0.672000,424.631000042'
p309
a.