(lp0
S'1,51,51,51,51,34,33,51,51,51,51,35,33,51,51,100,100,-9,71.00,34.00,16.439489,80.630476,0.080000,4.57500004768'
p1
aS'2,51,51,51,51,27,26,51,51,51,51,20,17,51,51,100,100,-9,70.00,35.00,16.439488,80.630477,0.076000,6.00900006294'
p2
aS'1,51,51,51,51,28,29,51,51,51,51,36,36,51,51,100,100,-9,70.00,35.00,16.439489,80.630481,0.196000,8.66900014877'
p3
aS'2,51,51,51,51,28,25,51,51,51,51,19,18,51,51,100,100,-9,70.00,34.00,16.439489,80.630492,0.281000,11.5360000134'
p4
aS'1,51,51,51,51,51,51,51,51,51,51,51,51,51,51,100,100,-9,70.00,35.00,16.439487,80.630504,0.339000,15.4279999733'
p5
aS'2,51,51,51,51,10,9,51,51,51,51,15,15,51,51,100,100,-9,70.00,35.00,16.439489,80.630528,0.573000,19.5240001678'
p6
aS'1,51,51,51,51,51,51,51,51,51,51,51,51,51,51,100,100,-9,70.00,35.00,16.439488,80.630530,0.243000,22.1920001507'
p7
aS'2,51,51,51,51,22,20,51,51,51,51,14,12,51,51,100,100,-9,70.00,35.00,16.439487,80.630538,0.428000,24.4149999619'
p8
aS'1,51,51,51,51,51,51,51,51,51,51,51,51,51,51,100,100,-9,70.00,35.00,16.439481,80.630528,0.129000,28.739000082'
p9
aS'2,51,51,51,51,15,13,51,51,51,51,11,8,51,51,100,100,-9,70.00,35.00,16.439482,80.630514,0.044000,31.4070000648'
p10
aS'1,51,51,51,51,38,39,51,51,51,51,36,34,51,51,100,100,-9,69.00,35.00,16.439478,80.630499,0.156000,34.0640001297'
p11
aS'2,51,51,51,51,51,9,51,51,51,51,15,13,16,51,100,100,-9,69.00,35.00,16.439478,80.630497,0.122000,36.7269999981'
p12
aS'1,51,51,51,51,51,51,51,51,51,51,51,51,51,51,100,100,-9,69.00,35.00,16.439472,80.630491,0.221000,39.1849999428'
p13
aS'2,51,51,51,51,51,12,51,51,51,51,19,16,19,51,100,100,-9,69.00,35.00,16.439468,80.630493,0.155000,43.2790000439'
p14
aS'1,51,51,51,51,51,51,51,51,51,51,51,51,51,51,100,100,-9,69.00,35.00,16.439468,80.630495,0.298000,45.9420001507'
p15
aS'2,51,51,51,51,51,13,51,51,51,51,12,12,15,51,100,100,-9,69.00,35.00,16.439474,80.630486,0.079000,48.6100001335'
p16
aS'1,51,51,51,51,51,51,51,51,51,51,51,51,51,51,100,100,-9,69.00,35.00,16.439487,80.630465,0.436000,51.0800001621'
p17
aS'2,51,51,51,51,51,15,51,51,51,51,23,23,51,51,100,100,-9,69.00,35.00,16.439488,80.630461,0.102000,55.364000082'
p18
aS'1,51,51,51,51,51,51,51,51,51,51,51,51,51,51,100,100,-9,69.00,35.00,16.439487,80.630464,0.052000,58.0260000229'
p19
aS'2,51,51,51,51,19,18,51,51,51,51,13,10,10,51,100,100,-9,69.00,35.00,16.439481,80.630445,0.460000,60.3080000877'
p20
aS'1,51,51,51,51,31,33,51,51,51,51,51,51,51,51,100,100,-9,69.00,35.00,16.439484,80.630447,0.112000,63.3510000706'
p21
aS'2,51,51,51,51,51,13,51,51,51,51,18,17,20,51,100,100,-9,69.00,35.00,16.439481,80.630441,0.109000,67.248000145'
p22
aS'1,51,51,51,51,51,51,51,51,51,51,51,51,51,51,100,100,-9,69.00,35.00,16.439483,80.630444,0.193000,69.75'
p23
aS'2,51,51,51,51,13,12,51,51,51,51,15,14,51,51,100,100,-9,69.00,35.00,16.439491,80.630442,0.143000,72.5670001507'
p24
aS'1,51,51,51,51,51,51,51,51,51,51,51,51,51,51,100,100,-9,69.00,35.00,16.439499,80.630438,0.097000,74.9500000477'
p25
aS'2,51,51,51,51,24,23,51,51,51,51,17,15,51,51,100,100,-9,69.00,35.00,16.439499,80.630432,0.205000,77.75'
p26
aS'1,51,51,51,51,51,51,51,51,51,51,51,51,51,51,100,100,-9,70.00,36.00,16.439501,80.630428,0.040000,81.9869999886'
p27
aS'2,51,51,51,51,14,13,51,51,51,51,15,16,51,51,100,100,-9,69.00,35.00,16.439496,80.630439,0.479000,84.6490001678'
p28
aS'1,51,51,51,51,51,51,51,51,51,51,51,51,51,51,100,100,-9,69.00,35.00,16.439497,80.630443,0.308000,87.1080000401'
p29
aS'2,51,51,51,51,17,15,51,51,51,51,13,13,51,51,100,100,-9,69.00,35.00,16.439501,80.630448,0.109000,90.998000145'
p30
aS'1,51,51,51,51,51,51,51,51,51,51,51,36,38,51,100,100,-9,68.00,35.00,16.439508,80.630459,0.429000,95.2990000248'
p31
aS'2,51,51,51,33,27,26,51,51,51,51,51,17,18,51,100,100,-9,68.00,35.00,16.439508,80.630457,0.167000,96.2039999962'
p32
aS'1,51,51,51,51,51,51,51,51,51,51,51,51,51,51,100,100,-9,68.00,35.00,16.439511,80.630448,0.168000,100.624000072'
p33
aS'2,51,51,51,51,25,23,51,51,51,51,18,15,19,51,100,100,-9,69.00,36.00,16.439505,80.630453,0.342000,102.855000019'
p34
aS'1,51,51,51,51,51,51,51,51,51,51,51,51,51,51,100,100,-9,68.00,35.00,16.439500,80.630451,0.073000,107.177000046'
p35
aS'2,51,51,51,51,27,26,51,51,51,51,21,18,51,51,100,100,-9,68.00,35.00,16.439498,80.630447,0.153000,109.75'
p36
aS'1,51,51,51,51,51,51,51,51,51,51,51,51,51,51,100,100,-9,68.00,35.00,16.439503,80.630436,0.139000,113.75'
p37
aS'2,51,51,51,51,27,25,51,51,51,51,19,17,20,51,100,100,-9,68.00,35.00,16.439502,80.630447,0.270000,117.75'
p38
aS'1,51,51,51,51,33,34,51,51,51,51,51,51,51,51,100,100,-9,69.00,36.00,16.439499,80.630458,0.211000,120.489000082'
p39
aS'2,51,51,51,51,13,12,51,51,51,51,14,14,51,51,100,100,-9,69.00,36.00,16.439496,80.630464,0.162000,124.585000038'
p40
aS'1,51,51,51,51,51,51,51,51,51,51,51,51,51,51,100,100,-9,68.00,35.00,16.439487,80.630475,0.373000,127.246999979'
p41
aS'2,51,51,51,51,13,11,51,51,51,51,18,18,51,51,100,100,-9,68.00,35.00,16.439486,80.630469,0.158000,129.703999996'
p42
aS'1,51,51,51,51,51,51,51,51,51,51,39,36,51,51,100,100,-9,69.00,36.00,16.439492,80.630460,0.131000,132.371000051'
p43
aS'2,51,51,51,51,10,11,51,51,51,51,18,19,51,51,100,100,-9,69.00,36.00,16.439498,80.630462,0.123000,135.029000044'
p44
aS'1,51,51,51,51,51,51,51,51,51,51,34,33,51,51,100,100,-9,68.00,35.00,16.439502,80.630461,0.110000,137.437999964'
p45
aS'2,51,51,51,51,51,14,51,51,51,51,21,21,26,51,100,100,-9,68.00,35.00,16.439505,80.630450,0.167000,140.354000092'
p46
aS'1,51,51,51,51,51,51,51,51,51,51,37,36,51,51,100,100,-9,68.00,35.00,16.439509,80.630447,0.066000,143.01699996'
p47
aS'2,51,51,51,51,13,13,51,51,51,51,21,22,51,51,100,100,-9,68.00,35.00,16.439507,80.630449,0.126000,145.473999977'
p48
aS'1,51,51,51,51,32,34,51,51,51,51,38,37,51,51,100,100,-9,68.00,35.00,16.439509,80.630444,0.094000,147.117000103'
p49
aS'2,51,51,51,51,27,26,51,51,51,51,19,18,51,51,100,100,-9,68.00,35.00,16.439512,80.630439,0.256000,148.342000008'
p50
aS'1,51,51,51,51,51,51,51,51,51,51,51,51,51,51,100,100,-9,68.00,35.00,16.439521,80.630432,0.414000,152.437000036'
p51
aS'2,51,51,51,51,11,12,51,51,51,51,16,15,51,51,100,100,-9,68.00,35.00,16.439499,80.630440,0.179000,156.328000069'
p52
aS'1,51,51,51,51,51,51,51,51,51,51,51,51,51,51,100,100,-9,68.00,35.00,16.439487,80.630443,0.241000,158.694999933'
p53
aS'2,51,51,51,51,51,17,51,51,51,51,10,8,10,51,100,100,-9,68.00,35.00,16.439484,80.630442,0.184000,163.087000132'
p54
aS'1,51,51,51,51,51,51,51,51,51,51,51,51,51,51,100,100,-9,68.00,35.00,16.439481,80.630446,0.252000,166.679000139'
p55
aS'2,51,51,51,51,22,21,51,51,51,51,15,12,14,51,100,100,-9,68.00,35.00,16.439447,80.630456,0.531000,171.07400012'
p56
aS'1,51,51,51,51,51,51,51,51,51,51,51,51,51,51,100,100,-9,68.00,35.00,16.439379,80.630480,1.377000,173.742000103'
p57
aS'2,51,51,51,51,51,24,51,51,51,51,17,14,16,51,100,100,-9,69.00,36.00,16.439412,80.630476,0.187000,175.989000082'
p58
aS'1,51,51,51,51,31,33,51,51,51,51,51,51,51,51,100,100,-9,69.00,36.00,16.439425,80.630475,0.147000,179.06400013'
p59
aS'2,51,51,51,51,51,14,51,51,51,51,10,10,14,51,100,100,-9,68.00,35.00,16.439443,80.630462,0.200000,182.952000141'
p60
aS'1,51,51,51,51,51,51,51,51,51,51,51,51,51,51,100,100,-9,69.00,36.00,16.439448,80.630462,0.095000,185.621999979'
p61
aS'2,51,51,51,51,51,17,51,51,51,51,9,9,11,51,100,100,-9,68.00,35.00,16.439460,80.630453,0.059000,189.302000046'
p62
aS'1,51,51,51,51,51,51,51,51,51,51,51,51,51,51,100,100,-9,68.00,35.00,16.439466,80.630447,0.155000,193.610000134'
p63
aS'2,51,51,51,51,31,29,51,51,51,51,23,21,51,51,100,100,-9,69.00,36.00,16.439469,80.630453,0.225000,195.036000013'
p64
aS'1,51,51,51,51,51,51,51,51,51,51,51,51,51,51,100,100,-9,69.00,36.00,16.439471,80.630454,0.030000,198.749000072'
p65
aS'2,51,51,51,51,20,19,51,51,51,51,13,10,51,51,100,100,-9,69.00,36.00,16.439477,80.630446,0.143000,201.588999987'
p66
aS'1,51,51,51,51,51,51,51,51,51,51,51,51,51,51,100,100,-9,68.00,35.00,16.439482,80.630447,0.143000,205.069999933'
p67
aS'2,51,51,51,51,51,21,51,51,51,51,14,12,51,51,100,100,-9,68.00,35.00,16.439484,80.630451,0.155000,206.55700016'
p68
aS'1,51,51,51,51,51,51,51,51,51,51,51,51,51,51,100,100,-9,69.00,36.00,16.439484,80.630449,0.098000,210.549999952'
p69
aS'2,51,51,51,51,51,31,51,51,51,51,25,23,51,51,100,100,-9,69.00,36.00,16.439486,80.630449,0.018000,212.239000082'
p70
aS'1,51,51,51,51,33,34,51,51,51,51,51,51,51,51,100,100,-9,68.00,35.00,16.439488,80.630445,0.162000,213.210999966'
p71
aS'2,51,51,51,51,18,16,51,51,51,51,11,10,51,51,100,100,-9,69.00,36.00,16.439493,80.630443,0.227000,216.131000042'
p72
aS'1,51,51,51,51,39,51,51,51,51,51,51,51,51,51,100,100,-9,69.00,36.00,16.439492,80.630439,0.161000,218.526000023'
p73
aS'2,51,51,51,51,14,15,51,51,51,51,23,23,51,51,100,100,-9,68.00,35.00,16.439500,80.630438,0.141000,222.752000093'
p74
aS'1,51,51,51,51,51,35,51,51,51,51,51,37,37,51,100,100,-9,69.00,36.00,16.439505,80.630439,0.078000,223.84800005'
p75
aS'2,51,51,51,51,51,19,51,51,51,51,13,12,15,51,100,100,-9,68.00,35.00,16.439508,80.630430,0.113000,226.758000135'
p76
aS'1,51,51,51,51,51,39,51,51,51,51,33,31,51,51,100,100,-9,68.00,35.00,16.439514,80.630423,0.130000,229.440999985'
p77
aS'2,51,51,51,51,51,21,51,51,51,51,14,11,14,51,100,100,-9,69.00,36.00,16.439514,80.630426,0.088000,230.752000093'
p78
aS'1,51,51,51,51,51,51,51,51,51,51,51,51,51,51,100,100,-9,69.00,36.00,16.439520,80.630419,0.109000,233.538000107'
p79
aS'2,51,51,51,51,14,13,51,51,51,51,11,10,14,51,100,100,-9,69.00,36.00,16.439522,80.630414,0.283000,236.200000048'
p80
aS'1,51,51,51,51,51,51,51,51,51,51,51,51,51,51,100,100,-9,68.00,35.00,16.439521,80.630414,0.234000,238.749000072'
p81
aS'2,51,51,51,51,51,20,51,51,51,51,15,11,14,51,100,100,-9,69.00,44.00,16.439516,80.630420,0.115000,241.118999958'
p82
aS'1,51,51,51,51,34,34,51,51,51,51,29,26,51,51,100,100,-9,69.00,36.00,16.439512,80.630425,0.340000,244.187000036'
p83
aS'2,51,51,51,51,51,16,51,51,51,51,19,19,51,51,100,100,-9,68.00,35.00,16.439507,80.630427,0.385000,245.416000128'
p84
aS'1,51,51,51,51,51,51,51,51,51,51,37,33,51,51,100,100,-9,69.00,36.00,16.439509,80.630430,0.082000,248.078000069'
p85
aS'2,51,51,51,51,11,13,51,51,51,51,22,21,25,51,100,100,-9,68.00,35.00,16.439512,80.630431,0.256000,250.742000103'
p86
aS'1,51,51,51,51,51,51,51,51,51,51,51,51,51,51,100,100,-9,69.00,36.00,16.439518,80.630425,0.681000,253.403000116'
p87
aS'2,51,51,51,51,51,14,51,51,51,51,21,20,26,51,100,100,-9,85.00,36.00,16.439519,80.630421,0.195000,256.065999985'
p88
aS'1,51,51,51,51,51,33,51,51,51,51,51,51,51,51,100,100,-9,68.00,35.00,16.439518,80.630423,0.132000,257.294000149'
p89
aS'2,51,51,51,51,51,51,51,51,51,51,51,51,51,51,100,100,-9,69.00,36.00,16.439517,80.630428,0.348000,258.400000095'
p90
aS'1,51,51,51,51,51,51,51,51,51,51,51,51,51,51,100,100,-9,68.00,35.00,16.439518,80.630428,0.160000,259.95600009'
p91
aS'2,51,51,51,51,17,16,51,51,51,51,12,8,51,51,100,100,-9,68.00,35.00,16.439524,80.630430,0.274000,264.054000139'
p92
aS'1,51,51,51,51,38,51,51,51,51,51,51,51,51,51,100,100,-9,68.00,35.00,16.439526,80.630429,0.395000,266.715000153'
p93
aS'2,51,51,51,51,24,22,51,51,51,51,17,14,16,51,100,100,-9,69.00,36.00,16.439525,80.630426,0.150000,269.036000013'
p94
aS'1,51,51,51,51,51,51,51,51,51,51,51,51,51,51,100,100,-9,69.00,36.00,16.439520,80.630429,0.326000,273.273000002'
p95
aS'2,51,51,51,51,51,11,51,51,51,51,15,14,51,51,100,100,-9,69.00,36.00,16.439518,80.630435,0.337000,275.749000072'
p96
aS'1,51,51,51,51,51,51,51,51,51,51,51,51,51,51,100,100,-9,69.00,36.00,16.439517,80.630436,0.216000,278.345000029'
p97
aS'2,51,51,51,51,30,29,51,51,51,51,25,24,27,51,100,100,-9,69.00,36.00,16.439515,80.630445,0.040000,281.460000038'
p98
aS'1,51,51,51,51,33,35,51,51,51,51,51,51,51,51,100,100,-9,69.00,36.00,16.439515,80.630446,0.112000,282.687999964'
p99
aS'2,51,51,51,51,38,37,51,51,51,51,32,29,30,51,100,100,-9,69.00,36.00,16.439516,80.630452,0.653000,283.703999996'
p100
aS'1,51,51,51,51,51,51,51,51,51,51,51,51,51,51,100,100,-9,68.00,35.00,16.439516,80.630455,0.367000,286.753999949'
p101
aS'2,51,51,51,51,23,22,51,51,51,51,17,13,18,51,100,100,-9,69.00,36.00,16.439515,80.630452,0.251000,289.452000141'
p102
aS'1,51,51,51,51,51,51,51,51,51,51,51,51,51,51,100,100,-9,69.00,36.00,16.439512,80.630454,0.286000,292.111000061'
p103
aS'2,51,51,51,51,51,51,51,51,51,51,36,34,51,51,100,100,-9,68.00,35.00,16.439513,80.630450,0.275000,293.34800005'
p104
aS'1,51,51,51,51,51,51,51,51,51,51,51,51,51,51,100,100,-9,69.00,36.00,16.439510,80.630447,0.395000,296.001000166'
p105
aS'2,51,51,51,51,51,33,51,51,51,51,26,23,51,51,100,100,-9,69.00,36.00,16.439512,80.630446,0.258000,297.434000015'
p106
aS'1,51,51,51,51,51,51,51,51,51,51,51,51,51,51,100,100,-9,68.00,35.00,16.439521,80.630441,0.359000,301.327000141'
p107
aS'2,51,51,51,51,20,18,51,51,51,51,22,21,51,51,100,100,-9,68.00,35.00,16.439523,80.630444,0.110000,303.998000145'
p108
aS'1,51,51,51,51,51,34,51,51,51,51,51,51,51,51,100,100,-9,69.00,36.00,16.439523,80.630446,0.012000,305.421999931'
p109
aS'2,51,51,51,51,14,13,51,51,51,51,17,16,51,51,100,100,-9,68.00,35.00,16.439518,80.630458,0.520000,308.084000111'
p110
aS'1,51,51,51,51,51,51,51,51,51,51,51,51,51,51,100,100,-9,67.00,35.00,16.439522,80.630454,0.028000,310.548000097'
p111
aS'2,51,51,51,51,18,17,51,51,51,51,13,13,51,51,100,100,-9,67.00,35.00,16.439522,80.630451,0.167000,313.407999992'
p112
aS'1,51,51,51,51,51,51,51,51,51,51,51,51,51,51,100,100,-9,68.00,36.00,16.439525,80.630449,0.223000,315.631999969'
p113
aS'2,51,51,51,51,13,12,51,51,51,51,14,11,19,51,100,100,-9,68.00,36.00,16.439531,80.630460,0.688000,319.614000082'
p114
aS'1,51,51,51,51,51,51,51,51,51,51,51,51,51,51,100,100,-9,68.00,36.00,16.439527,80.630467,0.365000,322.421000004'
p115
aS'2,51,51,51,51,51,16,51,51,51,51,9,8,11,51,100,100,-9,68.00,36.00,16.439525,80.630475,0.330000,325.087000132'
p116
aS'1,51,51,51,51,37,38,51,51,51,51,51,51,51,51,100,100,-9,67.00,35.00,16.439527,80.630477,0.286000,327.590000153'
p117
aS'2,51,51,51,51,12,13,51,51,51,51,22,21,51,51,100,100,-9,68.00,36.00,16.439543,80.630470,0.487000,331.75'
p118
aS'1,51,51,51,51,32,33,51,51,51,51,51,51,51,51,100,100,-9,67.00,35.00,16.439548,80.630461,0.437000,332.904999971'
p119
aS'2,51,51,51,51,51,21,51,51,51,51,14,11,14,51,100,100,-9,68.00,36.00,16.439542,80.630463,0.051000,335.625'
p120
aS'1,51,51,51,51,34,35,51,51,51,51,51,51,51,51,100,100,-9,68.00,36.00,16.439542,80.630466,0.024000,338.601999998'
p121
aS'2,51,51,51,51,14,12,51,51,51,51,10,10,51,51,100,100,-9,68.00,36.00,16.439544,80.630462,0.409000,341.266000032'
p122
aS'1,51,51,51,51,51,51,51,51,51,51,51,51,51,51,100,100,-9,67.00,35.00,16.439541,80.630454,0.601000,343.728000164'
p123
aS'2,51,51,51,51,51,20,51,51,51,51,13,11,12,51,100,100,-9,68.00,36.00,16.439542,80.630449,0.172000,346.197000027'
p124
aS'1,51,51,51,51,51,51,51,51,51,51,51,36,51,51,100,100,-9,68.00,36.00,16.439539,80.630443,0.476000,350.476999998'
p125
aS'2,51,51,51,51,9,10,51,51,51,51,17,17,51,51,100,100,-9,68.00,36.00,16.439533,80.630435,0.841000,353.138999939'
p126
aS'1,51,51,51,51,51,51,51,51,51,51,51,51,51,51,100,100,-9,67.00,35.00,16.439535,80.630434,0.370000,355.751000166'
p127
aS'2,51,51,51,51,13,12,51,51,51,51,17,16,21,51,100,100,-9,67.00,35.00,16.439530,80.630441,0.197000,358.470999956'
p128
aS'1,51,51,51,51,51,51,51,51,51,51,51,51,51,51,100,100,-9,68.00,36.00,16.439525,80.630444,0.188000,360.815000057'
p129
aS'2,51,51,51,14,9,11,51,51,51,51,51,8,10,51,100,100,-9,67.00,35.00,16.439506,80.630463,1.436000,364.796000004'
p130
aS'1,51,51,51,51,37,39,51,51,51,51,51,51,51,51,100,100,-9,68.00,36.00,16.439501,80.630461,0.394000,367.684999943'
p131
aS'2,51,51,51,12,9,12,51,51,51,51,21,19,22,51,100,100,-9,68.00,36.00,16.439498,80.630463,0.338000,371.75'
p132
aS'1,51,51,51,51,51,51,51,51,51,51,51,51,51,51,100,100,-9,68.00,36.00,16.439497,80.630469,0.225000,374.095999956'
p133
aS'2,51,51,51,20,16,16,51,51,51,51,51,13,15,51,100,100,-9,68.00,36.00,16.439492,80.630485,0.613000,376.751000166'
p134
aS'1,51,51,51,51,51,51,51,51,51,51,51,51,51,51,100,100,-9,68.00,36.00,16.439505,80.630485,0.578000,379.752000093'
p135
aS'2,51,51,51,21,17,16,51,51,51,51,51,10,11,51,100,100,-9,68.00,36.00,16.439503,80.630487,0.017000,383.400000095'
p136
aS'1,51,51,51,51,38,51,51,51,51,51,51,51,51,51,100,100,-9,68.00,36.00,16.439501,80.630487,0.278000,386.118000031'
p137
aS'2,51,51,51,51,22,21,51,51,51,51,17,12,14,51,100,100,-9,68.00,36.00,16.439509,80.630484,0.086000,388.715000153'
p138
aS'1,51,51,51,51,51,35,51,51,51,51,51,51,51,51,100,100,-9,68.00,36.00,16.439505,80.630478,0.229000,391.643000126'
p139
aS'2,51,51,51,21,15,15,51,51,51,51,14,14,17,51,100,100,-9,68.00,36.00,16.439506,80.630476,0.080000,394.304000139'
p140
aS'1,51,51,51,51,51,51,51,51,51,51,51,51,51,51,100,100,-9,68.00,36.00,16.439503,80.630472,0.179000,396.967000008'
p141
aS'2,51,51,51,51,27,26,51,51,51,51,27,26,51,51,100,100,-9,67.00,35.00,16.439503,80.630471,0.115000,399.628000021'
p142
aS'1,51,51,51,51,36,38,51,51,51,51,51,51,51,51,100,100,-9,68.00,36.00,16.439503,80.630474,0.201000,401.062000036'
p143
aS'2,51,51,51,51,22,21,51,51,51,51,16,13,14,51,100,100,-9,68.00,36.00,16.439509,80.630466,0.154000,404.955000162'
p144
aS'1,51,51,51,51,51,39,51,51,51,51,51,51,51,51,100,100,-9,67.00,35.00,16.439512,80.630459,0.253000,407.325999975'
p145
aS'2,51,51,51,10,9,10,51,51,51,51,19,18,22,51,100,100,-9,68.00,36.00,16.439516,80.630464,0.199000,411.312000036'
p146
aS'1,51,51,51,51,27,30,51,51,51,51,37,37,51,51,100,100,-9,68.00,36.00,16.439517,80.630466,0.090000,412.638000011'
p147
aS'2,51,51,51,51,20,19,51,51,51,51,14,10,10,51,100,100,-9,67.00,35.00,16.439519,80.630465,0.047000,415.603000164'
p148
aS'1,51,51,51,51,51,51,51,51,51,51,51,51,51,51,100,100,-9,68.00,36.00,16.439522,80.630469,0.165000,419.700000048'
p149
aS'2,51,51,51,51,51,17,51,51,51,51,11,10,14,51,100,100,-9,68.00,36.00,16.439534,80.630463,0.531000,422.361999989'
p150
aS'1,51,51,51,51,39,51,51,51,51,51,51,51,51,51,100,100,-9,67.00,35.00,16.439535,80.630463,0.112000,425.024000168'
p151
aS'2,51,51,51,51,17,15,51,51,51,51,13,14,51,51,100,100,-9,67.00,36.00,16.439539,80.630461,0.146000,427.480999947'
p152
aS'1,51,51,51,51,51,51,51,51,51,51,51,51,51,51,100,100,-9,67.00,36.00,16.439535,80.630468,0.152000,429.916000128'
p153
aS'2,51,51,51,51,51,11,51,51,51,51,15,15,21,51,100,100,-9,67.00,36.00,16.439533,80.630468,0.079000,432.611999989'
p154
aS'1,51,51,51,51,38,36,51,51,51,51,31,28,51,51,100,100,-9,67.00,36.00,16.439539,80.630465,0.050000,435.26699996'
p155
aS'2,51,51,51,51,19,18,51,51,51,51,21,20,51,51,100,100,-9,66.00,35.00,16.439538,80.630465,0.024000,436.832000017'
p156
aS'1,51,51,51,51,51,51,51,51,51,51,51,51,51,51,100,100,-9,67.00,36.00,16.439539,80.630460,0.019000,439.56400013'
p157
aS'2,51,51,51,51,16,14,36,51,51,51,10,9,12,51,100,100,-9,67.00,36.00,16.439536,80.630466,0.161000,443.203999996'
p158
aS'1,51,51,51,51,38,39,51,51,51,51,51,51,51,51,100,100,-9,66.00,35.00,16.439540,80.630473,0.401000,446.118999958'
p159
aS'2,51,51,51,51,21,20,51,51,51,51,14,12,51,51,100,100,-9,67.00,36.00,16.439539,80.630471,0.079000,448.522000074'
p160
aS'1,51,51,51,51,33,34,51,51,51,51,51,51,51,51,100,100,-9,66.00,35.00,16.439545,80.630456,0.330000,451.647000074'
p161
aS'2,51,51,51,51,14,13,37,51,51,51,19,19,25,51,100,100,-9,67.00,36.00,16.439545,80.630451,0.277000,454.309999943'
p162
aS'1,51,51,51,51,51,51,51,51,51,51,51,51,51,51,100,100,-9,67.00,36.00,16.439542,80.630452,0.121000,456.541000128'
p163
aS'2,51,51,51,51,51,18,51,51,51,51,11,10,51,51,100,100,-9,68.00,36.00,16.439539,80.630444,0.278000,459.19900012'
p164
aS'1,51,51,51,51,32,34,51,51,51,51,51,51,51,51,100,100,-9,68.00,36.00,16.439534,80.630444,0.180000,461.85800004'
p165
aS'2,51,51,51,51,22,21,51,51,51,51,17,13,15,51,100,100,-9,67.00,36.00,16.439532,80.630453,0.202000,464.549000025'
p166
aS'1,51,51,51,51,51,51,51,51,51,51,37,34,51,51,100,100,-9,67.00,36.00,16.439528,80.630467,0.028000,468.75'
p167
aS'2,51,51,51,51,11,12,51,51,51,51,21,20,51,51,100,100,-9,67.00,36.00,16.439524,80.630479,0.281000,471.521000147'
p168
aS'1,51,51,51,51,51,51,51,51,51,51,51,51,51,51,100,100,-9,66.00,35.00,16.439521,80.630494,0.466000,474.177000046'
p169
aS'2,51,51,51,51,17,16,51,51,51,51,12,12,51,51,100,100,-9,68.00,36.00,16.439520,80.630495,0.183000,476.75'
p170
aS'1,51,51,51,51,37,35,51,51,51,51,30,28,51,51,100,100,-9,67.00,36.00,16.439521,80.630494,0.032000,479.141000032'
p171
aS'2,51,51,51,51,18,17,51,51,51,51,12,11,15,51,100,100,-9,67.00,36.00,16.439522,80.630490,0.078000,480.460000038'
p172
aS'1,51,51,51,51,51,51,51,51,51,51,51,51,51,51,100,100,-9,67.00,36.00,16.439518,80.630489,0.073000,483.123000145'
p173
aS'2,51,51,51,51,26,24,51,51,51,51,19,16,51,51,100,100,-9,67.00,35.00,16.439513,80.630487,0.103000,485.785000086'
p174
aS'1,51,51,51,51,35,37,51,51,51,51,51,51,51,51,100,100,-9,67.00,36.00,16.439512,80.630488,0.062000,488.71600008'
p175
aS'2,51,51,51,51,15,14,34,51,51,51,9,8,11,51,100,100,-9,67.00,36.00,16.439514,80.630482,0.022000,492.427999973'
p176
aS'1,51,51,51,51,51,51,51,51,51,51,51,51,51,51,100,100,-9,67.00,36.00,16.439511,80.630477,0.062000,496.703999996'
p177
aS'2,51,51,51,51,29,28,51,51,51,51,22,19,23,51,100,100,-9,67.00,36.00,16.439514,80.630467,0.017000,500.913000107'
p178
aS'1,51,51,51,51,51,51,51,51,51,51,51,51,51,51,100,100,-9,67.00,36.00,16.439510,80.630463,0.136000,504.485000134'
p179
aS'2,51,51,51,51,15,14,51,51,51,51,10,7,9,51,100,100,-9,67.00,36.00,16.439510,80.630456,0.242000,508.40199995'
p180
aS'1,51,51,51,51,51,51,51,51,51,51,51,51,51,51,100,100,-9,67.00,36.00,16.439500,80.630459,0.151000,512.677000046'
p181
aS'2,51,51,51,51,27,25,51,51,51,51,20,17,18,51,100,100,-9,67.00,36.00,16.439514,80.630453,0.310000,516.751000166'
p182
aS'1,51,51,51,51,51,51,51,51,51,51,51,51,51,51,100,100,-9,67.00,36.00,16.439511,80.630465,0.190000,522.09800005'
p183
aS'2,51,51,51,51,20,19,51,51,51,51,51,10,12,51,100,100,-9,67.00,36.00,16.439507,80.630466,0.118000,524.334000111'
p184
aS'1,51,51,51,51,51,51,51,51,51,51,51,51,51,51,100,100,-9,66.00,35.00,16.439498,80.630471,0.103000,529.886000156'
p185
aS'2,51,51,51,51,19,18,51,51,51,51,16,9,11,51,100,100,-9,67.00,36.00,16.439489,80.630468,0.286000,533.980999947'
p186
aS'1,51,51,51,51,51,51,51,51,51,51,51,51,51,51,100,100,-9,67.00,36.00,16.439482,80.630449,0.445000,539.302999973'
p187
aS'2,51,51,51,51,9,8,51,51,51,51,13,13,51,51,100,100,-9,67.00,36.00,16.439486,80.630437,0.139000,542.946000099'
p188
aS'1,51,51,51,51,51,51,51,51,51,51,51,51,51,51,100,100,-9,67.00,36.00,16.439499,80.630441,0.070000,545.854000092'
p189
aS'2,51,51,51,51,13,12,51,51,51,51,16,14,19,51,100,100,-9,67.00,36.00,16.439501,80.630437,0.217000,548.51699996'
p190
aS'1,51,51,51,51,23,25,51,51,51,51,32,33,51,51,100,100,-9,67.00,36.00,16.439502,80.630439,0.122000,549.950000048'
p191
aS'2,51,51,51,51,24,23,51,51,51,51,17,15,51,51,100,100,-9,67.00,36.00,16.439503,80.630447,0.047000,552.409000158'
p192
aS'1,51,51,51,51,51,35,51,51,51,51,51,51,51,51,100,100,-9,67.00,36.00,16.439504,80.630452,0.034000,555.069999933'
p193
aS'2,51,51,51,51,51,25,51,51,51,51,19,16,19,51,100,100,-9,67.00,36.00,16.439506,80.630460,0.149000,557.73300004'
p194
aS'1,51,51,51,51,51,51,51,51,51,51,51,51,51,51,100,100,-9,67.00,36.00,16.439516,80.630451,0.273000,561.585000038'
p195
aS'2,51,51,51,51,15,13,51,51,51,51,11,10,51,51,100,100,-9,67.00,36.00,16.439522,80.630443,0.499000,565.751000166'
p196
aS'1,51,51,51,51,38,39,51,51,51,51,51,51,51,51,100,100,-9,67.00,36.00,16.439522,80.630446,0.169000,568.197000027'
p197
aS'2,51,51,51,51,28,26,51,51,51,51,20,18,51,51,100,100,-9,67.00,36.00,16.439525,80.630443,0.318000,571.25'
p198
aS'1,51,51,51,51,51,51,51,51,51,51,51,51,51,51,100,100,-9,67.00,36.00,16.439531,80.630438,0.394000,576.575000048'
p199
aS'2,51,51,51,51,13,12,51,51,51,51,15,15,51,51,100,100,-9,67.00,36.00,16.439538,80.630433,0.372000,580.644000053'
p200
aS'1,51,51,51,51,51,51,51,51,51,51,51,51,51,51,100,100,-9,67.00,36.00,16.439539,80.630435,0.216000,584.163000107'
p201
aS'2,51,51,51,51,24,25,51,51,51,51,34,33,37,51,100,100,-9,66.00,36.00,16.439544,80.630434,0.289000,589.753000021'
p202
aS'1,51,51,51,51,51,51,51,51,51,51,51,51,51,51,100,100,-9,74.00,36.00,16.439536,80.630442,0.096000,592.548000097'
p203
aS'2,51,51,51,51,19,19,51,51,51,51,15,14,51,51,100,100,-9,66.00,36.00,16.439534,80.630445,0.192000,597.75'
p204
aS'1,51,51,51,51,51,51,51,51,51,51,51,39,51,51,100,100,-9,66.00,36.00,16.439529,80.630455,0.094000,600.535000086'
p205
aS'2,51,51,51,51,13,13,51,51,51,51,19,19,51,51,100,100,-9,66.00,36.00,16.439526,80.630451,0.184000,603.197000027'
p206
aS'1,51,51,51,51,51,51,51,51,51,51,51,51,51,51,100,100,-9,66.00,36.00,16.439520,80.630461,0.305000,605.752000093'
p207
aS'2,51,51,51,51,12,12,51,51,51,51,20,21,51,51,100,100,-9,66.00,36.00,16.439517,80.630456,0.033000,609.75'
p208
aS'1,51,51,51,51,51,51,51,51,51,51,51,51,51,51,100,100,-9,66.00,36.00,16.439520,80.630455,0.063000,612.414000034'
p209
aS'2,51,51,51,51,25,23,51,51,51,51,18,15,51,51,100,100,-9,66.00,36.00,16.439519,80.630447,0.306000,615.077000141'
p210
aS'1,51,51,51,51,51,51,51,51,51,51,51,51,51,51,100,100,-9,66.00,36.00,16.439513,80.630447,0.165000,619.171999931'
p211
aS'2,51,51,51,51,16,16,51,51,51,51,15,14,20,51,100,100,-9,66.00,36.00,16.439508,80.630447,0.152000,621.75'
p212
aS'1,51,51,51,51,51,51,51,51,51,51,51,51,51,51,100,100,-9,66.00,36.00,16.439494,80.630453,0.301000,625.728000164'
p213
aS'2,51,51,51,51,51,51,51,51,51,51,36,34,51,51,100,100,-9,66.00,36.00,16.439492,80.630457,0.160000,626.752000093'
p214
aS'1,51,51,51,51,31,32,51,51,51,51,28,25,51,51,100,100,-9,66.00,36.00,16.439488,80.630457,0.214000,628.388999939'
p215
aS'2,51,51,51,51,16,14,51,51,51,51,10,9,51,51,100,100,-9,66.00,36.00,16.439485,80.630457,0.258000,629.75'
p216
aS'1,51,51,51,51,51,51,51,51,51,51,51,51,51,51,100,100,-9,66.00,36.00,16.439490,80.630440,0.519000,633.713999987'
p217
aS'2,51,51,51,51,11,9,15,51,51,51,12,12,51,51,100,100,-9,66.00,36.00,16.439490,80.630440,0.063000,637.75'
p218
aS'1,51,51,51,51,51,51,51,51,51,51,51,51,51,51,100,100,-9,66.00,36.00,16.439507,80.630435,0.236000,641.700000048'
p219
aS'2,51,51,51,51,16,15,51,51,51,51,10,8,51,51,100,100,-9,66.00,36.00,16.439507,80.630435,0.124000,645.601999998'
p220
aS'1,51,51,51,51,51,51,51,51,51,51,51,51,51,51,100,100,-9,66.00,36.00,16.439500,80.630441,0.333000,649.68900013'
p221
aS'2,51,51,51,51,12,13,38,51,51,51,20,21,51,51,100,100,-9,66.00,36.00,16.439487,80.630457,0.326000,653.578000069'
p222
aS'1,51,51,51,51,51,51,51,51,51,51,51,51,51,51,100,100,-9,66.00,36.00,16.439483,80.630447,0.218000,655.980999947'
p223
aS'2,51,51,51,10,6,7,51,51,51,51,51,51,51,51,100,100,-9,66.00,36.00,16.439489,80.630459,0.135000,661.575999975'
p224
aS'1,51,51,51,51,51,39,51,51,51,51,51,31,33,51,100,100,-9,66.00,36.00,16.439495,80.630455,0.067000,664.229000092'
p225
aS'2,51,51,51,51,21,21,51,51,51,51,15,11,51,51,100,100,-9,66.00,36.00,16.439495,80.630457,0.071000,665.282999992'
p226
aS'1,51,51,51,51,51,51,51,51,51,51,51,51,51,51,100,100,-9,66.00,36.00,16.439505,80.630462,0.178000,669.554000139'
p227
aS'2,51,51,51,21,16,16,51,51,51,51,51,8,8,51,100,100,-9,66.00,36.00,16.439504,80.630467,0.201000,673.253999949'
p228
aS'1,51,51,51,51,51,51,51,51,51,51,51,51,51,51,100,100,-9,66.00,36.00,16.439507,80.630460,0.242000,677.539000034'
p229
aS'2,51,51,51,23,18,18,51,51,51,51,14,11,13,51,100,100,-9,66.00,36.00,16.439508,80.630462,0.120000,680.207999945'
p230
aS'1,51,51,51,51,51,51,51,51,51,51,51,51,51,51,100,100,-9,66.00,36.00,16.439515,80.630464,0.173000,684.299000025'
p231
aS'2,51,51,51,11,8,10,51,51,51,51,17,17,20,51,100,100,-9,66.00,36.00,16.439510,80.630436,0.626000,688.194000006'
p232
aS'1,51,51,51,51,51,51,51,51,51,51,51,51,51,51,100,100,-9,66.00,36.00,16.439516,80.630440,0.221000,690.575999975'
p233
aS'2,51,51,51,51,51,17,51,51,51,51,11,8,9,51,100,100,-9,66.00,36.00,16.439512,80.630441,0.146000,694.56400013'
p234
aS'1,51,51,51,51,51,51,51,51,51,51,51,51,51,51,100,100,-9,66.00,36.00,16.439500,80.630425,0.350000,698.75'
p235
aS'2,51,51,51,51,22,22,51,51,51,51,16,13,51,51,100,100,-9,66.00,36.00,16.439498,80.630425,0.090000,702.75'
p236
aS'1,51,51,51,51,51,51,51,51,51,51,51,51,51,51,100,100,-9,66.00,36.00,16.439498,80.630434,0.038000,708.25999999'
p237
aS'2,51,51,51,51,21,21,51,51,51,51,15,12,13,51,100,100,-9,66.00,36.00,16.439499,80.630438,0.104000,712.15199995'
p238
aS'1,51,51,51,51,51,51,51,51,51,51,51,51,51,51,100,100,-9,66.00,36.00,16.439502,80.630448,0.167000,717.476000071'
p239
aS'2,51,51,51,51,17,16,36,51,51,51,9,8,11,51,100,100,-9,66.00,37.00,16.439503,80.630442,0.227000,721.202000141'
p240
aS'1,51,51,51,51,51,51,51,51,51,51,51,51,51,51,100,100,-9,66.00,36.00,16.439507,80.630470,0.372000,726.75'
p241
aS'2,51,51,51,21,14,14,51,51,51,51,12,9,12,51,100,100,-9,66.00,36.00,16.439507,80.630468,0.050000,732.220999956'
p242
aS'1,51,51,51,51,51,51,51,51,51,51,51,51,51,51,100,100,-9,66.00,36.00,16.439505,80.630459,0.077000,737.545000076'
p243
aS'2,51,51,51,19,12,11,51,51,51,51,10,9,13,51,100,100,-9,66.00,36.00,16.439507,80.630448,0.217000,741.436000109'
p244
aS'1,51,51,51,51,51,51,51,51,51,51,51,51,51,51,100,100,-9,66.00,36.00,16.439507,80.630429,0.440000,745.532000065'
p245
aS'2,51,51,51,51,16,14,35,51,51,51,9,9,14,51,100,100,-9,66.00,36.00,16.439506,80.630439,0.033000,750.752000093'
p246
aS'1,51,51,51,51,51,51,51,51,51,51,51,51,51,51,100,100,-9,66.00,36.00,16.439505,80.630444,0.128000,754.429000139'
p247
aS'2,51,51,51,51,26,24,51,51,51,51,18,16,51,51,100,100,-9,66.00,36.00,16.439511,80.630434,0.125000,758.644999981'
p248
aS'1,51,51,51,51,51,51,51,51,51,51,51,51,51,51,100,100,-9,66.00,36.00,16.439507,80.630437,0.135000,763.74000001'
p249
aS'2,51,51,51,51,9,11,51,51,51,51,18,18,21,51,100,100,-9,65.00,36.00,16.439509,80.630434,0.143000,770.72300005'
p250
aS'1,51,51,51,51,51,51,51,51,51,51,51,51,51,51,100,100,-9,66.00,36.00,16.439508,80.630447,0.118000,774.75'
p251
aS'1,51,51,51,51,25,27,51,51,51,51,23,18,18,51,100,100,-9,66.00,36.00,16.439505,80.630450,0.032000,780.15199995'
p252
aS'2,51,51,51,14,8,9,51,51,51,51,51,13,15,51,100,100,-9,65.00,36.00,16.439506,80.630455,0.172000,781.378000021'
p253
aS'1,51,51,51,51,51,51,51,51,51,51,51,51,51,51,100,100,-9,66.00,36.00,16.439506,80.630460,0.089000,784.035000086'
p254
aS'2,51,51,51,27,21,21,51,51,51,51,38,12,11,51,100,100,-9,65.00,36.00,16.439508,80.630459,0.057000,787.75'
p255
aS'1,51,51,51,51,30,31,51,51,51,51,38,36,39,51,100,100,-9,65.00,35.00,16.439508,80.630454,0.237000,790.75'
p256
aS'2,51,51,51,33,27,27,51,51,51,51,22,18,20,51,99,100,-9,65.00,35.00,16.439509,80.630454,0.081000,792.648000002'
p257
aS'1,51,51,51,51,51,51,51,51,51,51,35,31,31,51,100,100,-9,66.00,36.00,16.439505,80.630447,0.100000,796.120000124'
p258
aS'2,51,51,51,28,22,20,51,51,51,51,17,12,13,51,100,100,-9,65.00,36.00,16.439505,80.630444,0.175000,797.147000074'
p259
aS'1,51,51,51,51,51,51,51,51,51,51,51,51,51,51,100,100,-9,66.00,36.00,16.439503,80.630444,0.092000,802.671000004'
p260
aS'2,51,51,51,51,9,11,51,51,51,51,19,18,23,51,100,100,-9,66.00,36.00,16.439504,80.630440,0.022000,808.001000166'
p261
aS'1,51,51,51,51,51,51,51,51,51,51,51,51,51,51,100,100,-9,66.00,36.00,16.439507,80.630445,0.123000,813.115999937'
p262
aS'2,51,51,51,20,17,18,51,51,51,51,51,7,8,51,100,100,-9,66.00,36.00,16.439509,80.630432,0.123000,818.644999981'
p263
aS'1,51,51,51,51,51,51,51,51,51,51,51,51,51,51,100,100,-9,66.00,36.00,16.439510,80.630436,0.187000,823.970000029'
p264
aS'2,51,51,51,51,12,12,51,51,51,51,8,7,11,51,100,100,-9,66.00,36.00,16.439511,80.630436,0.229000,828.065999985'
p265
aS'1,51,51,51,51,51,51,51,51,51,51,51,51,51,51,100,100,-9,66.00,36.00,16.439511,80.630442,0.208000,833.391000032'
p266
aS'2,51,51,51,51,8,7,51,51,51,51,51,12,15,51,100,100,-9,66.00,36.00,16.439507,80.630448,0.083000,837.284000158'
p267
aS'1,51,51,51,51,51,51,51,51,51,51,51,51,51,51,100,100,-9,65.00,35.00,16.439506,80.630455,0.025000,841.174999952'
p268
aS'2,51,51,51,9,6,8,51,51,51,51,51,16,20,51,100,100,-9,66.00,36.00,16.439507,80.630453,0.168000,846.498000145'
p269
aS'1,51,51,51,51,51,51,51,51,51,51,51,51,51,51,100,100,-9,66.00,36.00,16.439509,80.630455,0.147000,848.95600009'
p270
aS'2,51,51,51,51,20,19,51,51,51,51,15,11,13,51,100,100,-9,66.00,36.00,16.439512,80.630449,0.132000,853.256000042'
p271
aS'1,51,51,51,51,51,51,51,51,51,51,51,51,51,51,100,100,-9,65.00,35.00,16.439506,80.630462,0.358000,856.878000021'
p272
aS'2,51,51,51,51,9,10,51,51,51,51,20,18,51,51,100,100,-9,66.00,36.00,16.439503,80.630461,0.192000,862.472000122'
p273
aS'1,51,51,51,51,51,51,51,51,51,51,51,51,51,51,100,100,-9,66.00,36.00,16.439508,80.630461,0.063000,866.568000078'
p274
aS'2,51,51,51,51,14,13,33,51,51,51,9,7,11,51,100,100,-9,66.00,36.00,16.439512,80.630457,0.176000,870.459000111'
p275
aS'1,51,51,51,51,51,51,51,51,51,51,51,51,51,51,100,100,-9,66.00,36.00,16.439514,80.630463,0.031000,874.555000067'
p276
aS'2,51,51,51,51,8,9,51,51,51,51,16,16,20,51,100,100,-9,65.00,35.00,16.439518,80.630465,0.110000,878.447999954'
p277
aS'1,51,51,51,51,51,51,51,51,51,51,51,51,51,51,100,100,-9,67.00,36.00,16.439513,80.630450,0.153000,882.544000149'
p278
aS'2,51,51,51,51,19,17,51,51,51,51,12,9,11,51,100,100,-9,67.00,36.00,16.439503,80.630453,0.280000,884.789999962'
p279
aS'1,51,51,51,51,51,51,51,51,51,51,51,51,51,51,100,100,-9,66.00,35.00,16.439504,80.630459,0.096000,890.538000107'
p280
aS'2,51,51,51,51,8,8,51,51,51,51,15,15,51,51,100,100,-9,67.00,36.00,16.439504,80.630464,0.114000,894.421999931'
p281
aS'1,51,51,51,51,51,51,51,51,51,51,51,51,51,51,100,100,-9,66.00,35.00,16.439505,80.630448,0.722000,898.521000147'
p282
aS'2,51,51,51,51,14,14,51,51,51,51,9,8,12,51,100,100,-9,67.00,36.00,16.439504,80.630438,0.301000,900.980000019'
p283
aS'1,51,51,51,51,51,51,51,51,51,51,51,51,51,51,100,100,-9,67.00,36.00,16.439507,80.630434,0.045000,904.871000051'
p284
aS'2,51,51,51,16,11,11,51,51,51,51,12,11,14,51,100,100,-9,67.00,36.00,16.439514,80.630433,0.158000,908.963000059'
p285
aS'1,51,51,51,51,51,51,51,51,51,51,51,51,51,51,100,100,-9,67.00,36.00,16.439514,80.630435,0.053000,911.376000166'
p286
aS'2,51,51,51,51,9,8,38,51,51,51,9,8,12,51,100,100,-9,67.00,36.00,16.439504,80.630423,0.196000,915.355999947'
p287
aS'1,51,51,51,51,37,39,51,51,51,51,51,51,51,51,100,100,-9,67.00,36.00,16.439503,80.630433,0.109000,918.177999973'
p288
aS'2,51,51,51,51,16,15,51,51,51,51,10,7,9,51,100,100,-9,67.00,36.00,16.439500,80.630441,0.567000,922.068000078'
p289
aS'1,51,38,51,51,51,51,51,51,51,51,51,51,51,39,100,100,-9,66.00,36.00,16.439495,80.630447,0.366000,926.371000051'
p290
aS'2,51,51,51,19,14,14,51,51,51,51,12,10,13,51,100,100,-9,66.00,36.00,16.439497,80.630453,0.455000,930.26699996'
p291
aS'1,37,51,51,51,51,51,51,51,51,51,51,51,51,51,100,100,-9,65.00,35.00,16.439503,80.630459,0.113000,933.957000017'
p292
aS'2,51,51,51,51,13,12,51,51,51,51,15,15,19,51,100,100,-9,66.00,36.00,16.439507,80.630453,0.172000,939.680000067'
p293
aS'1,51,51,51,51,51,51,51,51,51,51,51,51,51,51,100,100,-9,66.00,36.00,16.439507,80.630456,0.287000,945.005000114'
p294
aS'2,51,51,51,28,23,23,51,51,51,51,19,14,16,51,100,100,-9,66.00,36.00,16.439512,80.630467,0.742000,948.752000093'
p295
aS'1,51,51,51,51,51,51,51,51,51,51,51,51,51,51,100,100,-9,67.00,36.00,16.439515,80.630488,0.173000,953.001000166'
p296
aS'2,51,51,51,51,27,26,51,51,51,51,22,18,19,51,100,100,-9,66.00,36.00,16.439512,80.630484,0.735000,955.450999975'
p297
aS'1,51,51,51,51,51,51,51,51,51,51,51,51,51,51,100,100,-9,67.00,36.00,16.439511,80.630481,0.094000,959.546000004'
p298
aS'2,51,51,51,51,19,19,51,51,51,51,14,10,10,51,100,100,-9,67.00,36.00,16.439508,80.630477,0.193000,962.209000111'
p299
aS'1,51,51,51,51,51,51,51,51,51,51,51,51,51,51,100,100,-9,67.00,36.00,16.439510,80.630479,0.295000,966.305000067'
p300
aS'2,51,51,51,51,10,8,51,51,51,51,14,14,51,51,100,100,-9,67.00,36.00,16.439512,80.630472,0.162000,970.203999996'
p301
aS'1,51,51,51,51,51,51,51,51,51,51,51,51,51,51,100,100,-9,67.00,36.00,16.439516,80.630467,0.093000,974.292000055'
p302
aS'2,51,51,51,10,8,10,51,51,51,51,51,18,20,51,100,100,-9,67.00,36.00,16.439520,80.630463,0.122000,979.417999983'
p303
aS'1,37,51,38,51,51,51,51,51,51,51,51,51,51,37,100,100,-9,67.00,36.00,16.439518,80.630471,0.318000,983.508000135'
p304
aS'2,51,51,51,8,6,7,51,51,51,51,16,13,16,51,100,100,-9,67.00,36.00,16.439518,80.630459,0.131000,988.75'
p305
aS'1,31,32,32,51,51,51,51,51,51,51,51,51,51,33,100,100,-9,67.00,36.00,16.439509,80.630453,0.290000,992.49000001'
p306
aS'2,51,51,51,17,13,13,51,51,51,51,10,9,11,51,100,100,-9,67.00,36.00,16.439506,80.630453,0.067000,996.75'
p307
aS'1,31,36,34,51,51,51,51,51,51,51,51,51,51,34,100,100,-9,67.00,36.00,16.439511,80.630479,0.615000,1000.48099995'
p308
aS'2,51,51,51,51,20,19,51,51,51,51,14,10,10,51,100,100,-9,66.00,35.00,16.439506,80.630473,0.133000,1004.75'
p309
aS'1,29,30,30,51,51,51,51,51,51,51,51,51,51,31,100,100,-9,66.00,35.00,16.439499,80.630442,0.409000,1010.1400001'
p310
aS'2,51,51,51,51,13,12,51,51,51,51,8,6,8,51,100,100,-9,67.00,36.00,16.439502,80.630456,0.047000,1013.7420001'
p311
aS'1,51,29,51,51,51,51,51,51,51,51,51,51,51,51,100,100,-9,66.00,35.00,16.439501,80.630461,0.110000,1018.11899996'
p312
aS'2,51,51,51,51,6,7,51,51,51,51,16,14,17,51,100,100,-9,66.00,36.00,16.439503,80.630457,0.032000,1023.44700003'
p313
aS'1,51,51,51,51,51,51,51,51,51,51,51,51,51,51,100,100,-9,65.00,35.00,16.439500,80.630457,0.104000,1025.71200013'
p314
aS'2,51,51,51,51,11,12,51,51,51,51,51,17,20,51,100,100,-9,67.00,36.00,16.439503,80.630455,0.024000,1030.00399995'
p315
aS'1,51,51,51,51,51,51,51,51,51,51,51,51,51,51,100,100,-9,66.00,36.00,16.439503,80.630455,0.152000,1032.45500016'
p316
aS'2,51,51,51,51,13,11,51,51,51,51,8,6,8,51,100,100,-9,67.00,36.00,16.439507,80.630448,0.142000,1036.375'
p317
aS'1,51,51,51,51,51,51,51,51,51,51,51,51,51,51,100,100,-9,67.00,36.00,16.439508,80.630425,0.277000,1041.70000005'
p318
aS'2,51,51,51,34,35,51,51,51,51,51,51,35,38,51,100,100,-9,67.00,36.00,16.439505,80.630421,0.090000,1047.023'
p319
aS'1,51,51,51,51,39,51,51,51,51,51,51,30,30,51,100,100,-9,67.00,36.00,16.439505,80.630421,0.096000,1048.63300014'
p320
aS'2,51,51,51,11,9,11,51,51,51,51,20,18,21,51,100,100,-9,67.00,36.00,16.439501,80.630427,0.066000,1051.30200005'
p321
aS'1,51,51,51,51,51,51,51,51,51,51,51,51,51,51,100,100,-9,67.00,36.00,16.439498,80.630427,0.045000,1053.66400003'
p322
aS'2,51,51,51,51,11,11,51,51,51,51,11,11,15,51,100,100,-9,66.00,35.00,16.439498,80.630431,0.070000,1057.85000014'
p323
aS'1,51,51,51,51,39,51,51,51,51,51,51,51,51,51,100,100,-9,67.00,36.00,16.439501,80.630436,0.180000,1060.71600008'
p324
aS'2,51,51,51,25,18,18,51,51,51,51,12,8,8,51,100,100,-9,67.00,36.00,16.439496,80.630443,0.098000,1063.17600012'
p325
aS'1,51,51,51,51,51,51,51,51,51,51,51,51,51,51,100,100,-9,67.00,36.00,16.439497,80.630451,0.138000,1067.27100015'
p326
aS'2,51,51,51,51,19,18,51,51,51,51,15,10,10,51,100,100,-9,67.00,36.00,16.439500,80.630453,0.269000,1069.60400009'
p327
aS'1,51,51,51,51,51,51,51,51,51,51,51,51,51,51,100,100,-9,67.00,36.00,16.439495,80.630451,0.226000,1073.59100008'
p328
aS'2,51,51,51,22,18,17,51,51,51,51,51,9,10,51,100,100,-9,67.00,36.00,16.439494,80.630452,0.028000,1077.75'
p329
aS'1,51,51,51,51,51,51,51,51,51,51,51,51,51,51,100,100,-9,67.00,36.00,16.439497,80.630467,0.249000,1082.01699996'
p330
aS'2,51,51,51,18,14,15,51,51,51,51,8,6,7,51,100,100,-9,67.00,36.00,16.439491,80.630470,0.117000,1085.75200009'
p331
aS'1,51,51,51,51,51,51,51,51,51,51,51,51,51,51,100,100,-9,67.00,36.00,16.439487,80.630472,0.190000,1089.75'
p332
aS'2,51,51,51,51,20,19,51,51,51,51,51,51,10,51,100,100,-9,67.00,36.00,16.439481,80.630476,0.257000,1092.46000004'
p333
aS'1,51,51,51,51,51,51,51,51,51,51,51,51,51,51,100,100,-9,67.00,36.00,16.439490,80.630470,0.132000,1097.58599997'
p334
aS'2,51,51,51,51,16,16,51,51,51,51,11,6,8,51,100,100,-9,67.00,36.00,16.439496,80.630460,0.131000,1101.67600012'
p335
aS'1,51,51,51,51,51,51,51,51,51,51,51,51,51,51,100,100,-9,66.00,35.00,16.439500,80.630459,0.150000,1107.20500016'
p336
aS'2,51,51,51,51,21,21,51,51,51,51,18,14,15,51,100,100,-9,67.00,36.00,16.439503,80.630464,0.101000,1112.52999997'
p337
aS'1,51,51,51,51,51,51,51,51,51,51,51,51,51,51,100,100,-9,67.00,36.00,16.439510,80.630478,0.362000,1117.75100017'
p338
aS'2,51,51,51,32,26,26,51,51,51,51,20,17,17,51,100,100,-9,67.00,36.00,16.439510,80.630479,0.093000,1120.51800013'
p339
aS'1,51,51,51,51,51,51,51,51,51,51,51,51,51,51,100,100,-9,67.00,36.00,16.439515,80.630483,0.012000,1125.4230001'
p340
aS'2,51,51,51,51,16,15,51,51,51,51,21,19,51,51,100,100,-9,67.00,36.00,16.439521,80.630479,0.146000,1129.73900008'
p341
aS'1,51,51,51,51,51,51,51,51,51,51,51,51,51,51,100,100,-9,66.00,35.00,16.439521,80.630485,0.399000,1133.74900007'
p342
aS'2,51,51,51,51,13,12,51,51,51,51,9,7,7,51,100,100,-9,67.00,36.00,16.439513,80.630465,0.262000,1137.72000003'
p343
aS'1,51,51,51,51,51,51,51,51,51,51,51,51,51,51,100,100,-9,67.00,36.00,16.439511,80.630464,0.157000,1141.40700006'
p344
aS'2,51,51,51,10,7,9,51,51,51,51,18,16,21,51,100,100,-9,67.00,36.00,16.439502,80.630476,0.282000,1146.75'
p345
aS'1,51,51,51,51,51,51,51,51,51,51,51,51,51,51,100,100,-9,66.00,35.00,16.439503,80.630478,0.065000,1151.03200006'
p346
aS'2,51,51,51,10,8,10,51,51,51,51,51,17,20,51,100,100,-9,67.00,36.00,16.439507,80.630469,0.171000,1156.36000013'
p347
aS'1,51,51,51,51,51,51,51,51,51,51,51,51,51,51,100,100,-9,67.00,36.00,16.439504,80.630490,0.998000,1160.24900007'
p348
aS'2,51,51,51,9,8,11,51,51,51,51,19,18,21,51,100,100,-9,67.00,36.00,16.439489,80.630482,1.119000,1165.57200003'
p349
aS'1,51,51,51,51,51,51,51,51,51,51,51,51,51,51,100,100,-9,67.00,36.00,16.439487,80.630491,0.138000,1168.24600005'
p350
aS'2,51,51,51,51,9,10,51,51,51,51,19,16,22,51,100,100,-9,67.00,36.00,16.439480,80.630478,0.339000,1172.34100008'
p351
aS'1,51,51,51,51,51,51,51,51,51,51,51,51,51,51,100,100,-9,67.00,36.00,16.439479,80.630471,0.064000,1174.99500012'
p352
aS'2,51,51,51,51,10,9,39,51,51,51,8,6,8,51,100,100,-9,67.00,36.00,16.439478,80.630467,0.144000,1178.74900007'
p353
aS'1,51,51,51,51,51,51,51,51,51,51,51,51,51,51,100,100,-9,66.00,35.00,16.439479,80.630463,0.274000,1182.75'
p354
aS'2,51,51,51,51,23,23,51,51,51,51,18,14,14,51,100,100,-9,66.00,36.00,16.439484,80.630460,0.417000,1186.75100017'
p355
aS'1,51,51,51,51,51,51,51,51,51,51,51,51,51,51,100,100,-9,66.00,36.00,16.439488,80.630457,0.020000,1190.9690001'
p356
aS'1,51,51,51,51,36,35,51,51,51,51,31,27,28,51,100,100,-9,66.00,36.00,16.439489,80.630446,0.291000,1194.75'
p357
aS'2,51,51,51,23,17,16,51,51,51,51,10,7,9,51,100,100,-9,66.00,36.00,16.439491,80.630449,0.384000,1195.86599994'
p358
aS'1,51,51,51,51,51,51,51,51,51,51,51,51,51,51,100,100,-9,65.00,35.00,16.439494,80.630448,0.175000,1200.19099998'
p359
aS'2,51,51,51,51,19,17,51,51,51,51,20,19,25,51,100,100,-9,65.00,35.00,16.439496,80.630445,0.188000,1202.75300002'
p360
aS'1,51,51,51,51,51,51,51,51,51,51,51,51,51,51,100,100,-9,66.00,36.00,16.439498,80.630456,0.906000,1205.50999999'
p361
aS'2,51,51,51,15,10,9,39,51,51,51,12,12,15,51,100,100,-9,66.00,36.00,16.439503,80.630466,0.417000,1210.75100017'
p362
aS'1,51,51,51,51,51,51,51,51,51,51,51,51,51,51,100,100,-9,66.00,36.00,16.439505,80.630468,0.099000,1214.72399998'
p363
aS'2,51,51,51,51,18,16,51,51,51,51,12,8,51,51,100,100,-9,65.00,35.00,16.439512,80.630474,0.527000,1218.75100017'
p364
aS'1,51,51,51,51,51,51,51,51,51,51,51,51,51,51,100,100,-9,66.00,36.00,16.439512,80.630477,0.870000,1222.50699997'
p365
aS'2,51,51,51,51,13,13,51,51,51,51,10,6,8,51,100,100,-9,66.00,36.00,16.439505,80.630463,0.322000,1226.60400009'
p366
aS'1,39,51,51,51,51,51,51,51,51,51,51,51,51,51,100,100,-9,66.00,36.00,16.439502,80.630450,0.853000,1230.69900012'
p367
aS'2,51,51,51,51,21,21,51,51,51,51,16,12,14,51,100,100,-9,66.00,36.00,16.439501,80.630442,0.081000,1234.75200009'
p368
aS'1,51,51,51,51,51,51,51,51,51,51,51,51,51,51,100,100,-9,66.00,36.00,16.439498,80.630432,0.254000,1238.48699999'
p369
aS'2,51,51,51,51,16,16,51,51,51,51,10,7,9,51,100,100,-9,66.00,36.00,16.439510,80.630435,0.358000,1242.44099998'
p370
aS'1,51,37,51,51,51,51,51,51,51,51,51,51,51,51,100,100,-9,66.00,36.00,16.439509,80.630432,0.620000,1246.6730001'
p371
aS'2,51,51,51,51,8,7,51,51,51,51,13,13,16,51,100,100,-9,66.00,37.00,16.439507,80.630414,0.153000,1250.75'
p372
aS'1,39,51,51,51,51,51,51,51,51,51,51,51,51,51,100,100,-9,66.00,36.00,16.439505,80.630421,0.115000,1253.0940001'
p373
aS'2,51,51,51,51,11,11,51,51,51,51,7,6,8,51,100,100,-9,66.00,36.00,16.439517,80.630440,0.517000,1257.12000012'
p374
aS'1,51,51,51,51,51,51,51,51,51,51,51,51,51,51,100,100,-9,66.00,36.00,16.439514,80.630432,0.338000,1261.41799998'
p375
aS'2,51,51,51,51,23,22,51,51,51,51,51,14,14,51,100,100,-9,66.00,36.00,16.439515,80.630430,0.294000,1263.67700005'
p376
aS'1,51,51,51,38,34,36,51,51,51,51,51,51,51,51,100,100,-9,66.00,36.00,16.439514,80.630433,0.061000,1266.36199999'
p377
aS'2,51,51,51,13,9,8,51,51,51,51,10,9,12,51,100,100,-9,66.00,36.00,16.439500,80.630420,0.520000,1270.63499999'
p378
aS'1,51,34,51,51,51,51,51,51,51,51,51,51,51,51,100,100,-9,66.00,36.00,16.439498,80.630432,0.231000,1274.73500013'
p379
aS'2,51,51,51,15,12,14,51,51,51,51,51,21,24,51,100,100,-9,66.00,36.00,16.439499,80.630440,0.304000,1278.43200016'
p380
aS'1,51,30,51,51,51,51,51,51,51,51,51,39,38,51,100,100,-9,66.00,36.00,16.439495,80.630443,0.249000,1281.08100009'
p381
aS'2,51,51,51,51,6,7,51,51,51,51,16,12,16,51,100,100,-9,66.00,36.00,16.439500,80.630434,0.182000,1296.85599995'
p382
aS'1,51,51,51,51,51,51,51,51,51,51,51,51,51,51,100,100,-9,66.00,36.00,16.439505,80.630434,0.144000,1299.71600008'
p383
aS'2,51,51,51,51,8,10,51,51,51,51,20,17,20,51,100,100,-9,66.00,36.00,16.439509,80.630427,0.170000,1303.74900007'
p384
aS'1,29,51,26,51,51,51,51,51,51,51,51,51,51,51,100,100,-9,66.00,36.00,16.439508,80.630427,0.127000,1307.70300007'
p385
aS'2,51,51,51,27,20,19,51,51,51,51,14,12,17,51,100,100,-9,66.00,36.00,16.439513,80.630424,0.098000,1310.36500001'
p386
aS'1,28,26,26,51,51,51,51,51,51,51,51,51,51,51,100,100,-9,66.00,36.00,16.439508,80.630429,0.181000,1314.46099997'
p387
aS'2,51,51,51,51,19,18,51,51,51,51,13,9,10,51,100,100,-9,66.00,36.00,16.439502,80.630423,0.232000,1317.12400007'
p388
aS'1,51,51,51,51,51,51,51,51,51,51,51,51,51,51,100,100,-9,65.00,35.00,16.439509,80.630435,0.094000,1321.0150001'
p389
aS'2,51,51,51,15,10,10,51,51,51,51,51,11,13,51,100,100,-9,66.00,36.00,16.439525,80.630469,0.475000,1325.1170001'
p390
aS'1,51,51,21,51,51,51,51,51,51,51,51,51,51,51,100,100,-9,65.00,35.00,16.439530,80.630476,0.176000,1330.23000002'
p391
aS'1,51,51,51,51,51,51,36,51,51,51,51,51,51,51,100,100,-9,66.00,36.00,16.439526,80.630472,0.306000,1336.78400016'
p392
aS'1,51,51,51,31,29,51,51,51,51,51,32,29,51,51,100,100,-9,66.00,36.00,16.439527,80.630471,0.039000,1339.65199995'
p393
aS'2,51,51,51,51,10,11,51,51,51,51,19,19,51,51,100,100,-9,66.00,36.00,16.439533,80.630467,0.228000,1342.3210001'
p394
aS'1,51,51,51,51,51,51,51,51,51,51,51,51,51,51,100,100,-9,66.00,36.00,16.439528,80.630475,0.313000,1346.41000009'
p395
aS'2,51,51,51,51,15,14,51,51,51,51,9,7,10,51,100,100,-9,66.00,36.00,16.439529,80.630480,0.209000,1351.35400009'
p396
aS'1,51,51,51,51,51,51,51,51,51,51,51,51,51,51,100,100,-9,67.00,36.00,16.439520,80.630471,0.046000,1357.05900002'
p397
aS'2,51,51,51,51,9,10,51,51,51,51,18,17,51,51,100,100,-9,66.00,36.00,16.439516,80.630459,0.207000,1360.74699998'
p398
aS'1,51,51,51,51,51,51,51,51,51,51,51,51,51,51,100,100,-9,65.00,35.00,16.439512,80.630455,0.121000,1364.852'
p399
aS'2,51,51,51,51,19,17,51,51,51,51,13,9,10,51,100,100,-9,66.00,36.00,16.439510,80.630449,0.111000,1368.66799998'
p400
aS'1,51,51,51,51,51,51,51,51,51,51,51,51,51,51,100,100,-9,66.00,36.00,16.439512,80.630438,0.049000,1374.26200008'
p401
aS'2,51,51,51,51,10,10,32,51,51,51,17,17,51,51,100,100,-9,66.00,36.00,16.439514,80.630444,0.118000,1378.36100006'
p402
aS'1,51,51,51,51,51,51,51,51,51,51,51,51,51,51,100,100,-9,65.00,35.00,16.439515,80.630447,0.036000,1381.01999998'
p403
aS'2,51,51,51,51,19,17,51,51,51,51,12,10,16,51,100,100,-9,65.00,35.00,16.439512,80.630442,0.180000,1383.31200004'
p404
aS'1,51,51,51,51,51,51,51,51,51,51,51,51,51,51,100,100,-9,66.00,36.00,16.439521,80.630455,0.291000,1387.57599998'
p405
aS'2,51,51,51,51,8,7,51,51,51,51,51,13,18,51,100,100,-9,66.00,36.00,16.439525,80.630453,0.183000,1391.46500015'
p406
aS'1,51,51,51,51,51,51,51,51,51,51,51,51,51,51,100,100,-9,66.00,36.00,16.439532,80.630471,0.517000,1393.94700003'
p407
aS'2,51,51,51,22,17,16,51,51,51,51,10,8,9,51,100,100,-9,66.00,36.00,16.439526,80.630458,0.260000,1398.01900005'
p408
aS'1,51,51,51,51,51,51,51,51,39,51,51,51,51,51,100,100,-9,66.00,36.00,16.439532,80.630469,0.238000,1402.31900001'
p409
aS'2,51,51,51,51,28,27,51,51,51,51,23,19,51,51,100,100,-9,65.00,35.00,16.439530,80.630469,0.185000,1404.98200011'
p410
aS'1,51,51,51,51,51,51,51,51,51,51,51,51,51,51,100,100,-9,65.00,35.00,16.439533,80.630478,0.305000,1408.66799998'
p411
aS'2,51,51,51,51,51,19,51,51,51,51,12,9,11,51,100,100,-9,66.00,36.00,16.439530,80.630472,0.047000,1412.9690001'
p412
aS'1,51,51,51,51,51,51,51,51,51,51,39,36,51,51,100,100,-9,66.00,36.00,16.439530,80.630472,0.114000,1416.75100017'
p413
aS'2,51,51,51,51,9,10,51,51,51,51,17,17,51,51,100,100,-9,65.00,35.00,16.439528,80.630472,0.151000,1419.52800012'
p414
aS'1,51,51,51,51,51,51,51,51,51,51,51,51,51,51,100,100,-9,66.00,36.00,16.439530,80.630469,0.057000,1422.18499994'
p415
aS'2,51,51,51,51,10,9,25,51,51,51,10,10,14,51,100,100,-9,66.00,36.00,16.439531,80.630462,0.313000,1427.50999999'
p416
aS'1,51,51,51,51,51,51,51,51,51,51,51,51,51,51,100,100,-9,66.00,36.00,16.439529,80.630467,0.118000,1431.61199999'
p417
aS'2,51,51,51,51,21,19,51,51,51,51,14,12,51,51,100,100,-9,66.00,36.00,16.439525,80.630460,0.021000,1435.19200015'
p418
aS'1,51,51,51,51,51,51,51,51,51,51,51,51,51,51,100,100,-9,66.00,36.00,16.439520,80.630445,0.089000,1440.75100017'
p419
aS'2,51,51,51,51,51,23,51,51,51,51,17,14,18,51,100,100,-9,66.00,36.00,16.439521,80.630449,0.093000,1443.16700006'
p420
aS'1,51,51,51,51,51,51,51,51,51,51,51,51,51,51,100,100,-9,66.00,36.00,16.439521,80.630450,0.037000,1447.15499997'
p421
aS'2,51,51,51,51,20,19,51,51,51,51,13,10,51,51,100,100,-9,66.00,36.00,16.439520,80.630448,0.116000,1451.14600015'
p422
aS'1,51,51,51,51,31,31,36,51,51,51,27,26,51,51,100,100,-9,66.00,36.00,16.439512,80.630450,0.160000,1453.93400002'
p423
aS'2,51,51,51,51,16,15,37,51,51,51,9,8,51,51,100,100,-9,66.00,36.00,16.439512,80.630451,0.085000,1455.36199999'
p424
aS'1,51,51,51,51,33,34,51,51,51,51,51,51,51,51,100,100,-9,66.00,36.00,16.439509,80.630453,0.094000,1458.22900009'
p425
aS'2,51,51,51,51,18,16,38,51,51,51,10,8,51,51,100,100,-9,66.00,36.00,16.439509,80.630452,0.040000,1460.43900013'
p426
aS'1,51,51,51,51,51,51,51,51,51,51,51,51,51,51,100,100,-9,66.00,36.00,16.439501,80.630447,0.212000,1464.42700005'
p427
aS'2,51,51,51,51,51,18,51,51,51,51,13,11,18,51,100,100,-9,66.00,36.00,16.439482,80.630440,0.503000,1468.68900013'
p428
aS'1,51,51,51,51,51,51,51,51,51,51,51,51,51,51,100,100,-9,66.00,36.00,16.439474,80.630436,0.632000,1472.75'
p429
aS'2,51,51,51,51,13,15,51,51,51,51,23,22,51,51,100,100,-9,66.00,36.00,16.439465,80.630445,0.308000,1476.66100001'
p430
aS'1,51,51,51,51,51,51,51,51,51,51,51,51,51,51,100,100,-9,66.00,36.00,16.439471,80.630446,0.181000,1479.32500005'
p431
aS'2,51,51,51,51,11,9,51,51,51,51,13,13,51,51,100,100,-9,65.00,36.00,16.439467,80.630440,0.158000,1483.42000008'
p432
aS'1,51,51,51,51,51,51,51,51,51,51,51,51,51,51,100,100,-9,65.00,36.00,16.439469,80.630437,0.297000,1485.75100017'
p433
aS'2,51,51,51,51,11,12,38,51,51,51,19,20,51,51,100,100,-9,65.00,36.00,16.439465,80.630433,0.247000,1489.97300005'
p434
aS'1,51,51,51,51,51,51,51,51,51,51,51,51,51,51,100,100,-9,65.00,36.00,16.439468,80.630439,0.182000,1492.63700008'
p435
aS'1,51,51,51,51,20,20,51,51,51,51,15,12,15,51,100,100,-9,65.00,36.00,16.439469,80.630444,0.244000,1497.96200013'
p436
aS'2,51,51,51,8,7,7,51,51,51,51,8,7,7,51,100,100,-9,65.00,36.00,16.439470,80.630443,0.327000,1500.63300014'
p437
aS'1,51,51,51,51,51,51,51,51,51,51,51,51,51,51,100,100,-9,65.00,36.00,16.439476,80.630440,0.163000,1504.71799994'
p438
aS'2,51,51,51,51,21,20,51,51,51,51,16,12,15,51,100,100,-9,65.00,36.00,16.439481,80.630446,0.149000,1506.95300007'
p439
aS'1,51,51,51,51,51,51,51,51,51,51,51,51,51,51,100,100,-9,65.00,36.00,16.439490,80.630444,0.096000,1511.06800008'
p440
aS'2,51,51,51,51,11,10,51,51,51,51,9,6,8,51,100,100,-9,65.00,36.00,16.439492,80.630446,0.328000,1516.59599996'
p441
aS'1,51,51,51,51,51,51,51,51,51,51,51,51,51,51,100,100,-9,65.00,36.00,16.439491,80.630450,0.169000,1520.48800015'
p442
aS'2,51,51,51,51,12,11,51,51,51,51,51,7,11,51,100,100,-9,65.00,36.00,16.439493,80.630453,0.022000,1523.1500001'
p443
aS'1,51,51,51,51,51,51,51,51,51,51,51,51,51,51,100,100,-9,65.00,36.00,16.439499,80.630461,0.734000,1527.24600005'
p444
aS'2,51,51,51,51,21,21,51,51,51,51,17,12,13,51,100,100,-9,65.00,36.00,16.439500,80.630463,0.176000,1529.704'
p445
aS'1,51,51,51,51,51,51,51,51,51,51,51,51,51,51,100,100,-9,65.00,36.00,16.439502,80.630461,0.248000,1533.53299999'
p446
aS'2,51,51,51,11,7,7,51,51,51,51,13,11,14,51,100,100,-9,65.00,36.00,16.439504,80.630457,0.081000,1537.75200009'
p447
aS'1,51,51,51,51,51,51,51,51,51,51,51,51,51,51,100,100,-9,65.00,36.00,16.439506,80.630450,0.155000,1541.75200009'
p448
aS'2,51,51,51,51,13,12,51,51,51,51,9,8,11,51,100,100,-9,65.00,36.00,16.439506,80.630448,0.361000,1545.75'
p449
aS'1,51,51,51,51,51,51,51,51,51,51,51,51,51,51,100,100,-9,65.00,36.00,16.439505,80.630450,0.064000,1549.75200009'
p450
aS'2,51,51,51,12,8,7,51,51,51,51,51,12,15,51,100,100,-9,64.00,35.00,16.439503,80.630447,0.124000,1553.74900007'
p451
aS'1,51,51,51,51,51,51,51,51,51,51,51,51,51,51,100,100,-9,65.00,36.00,16.439501,80.630442,0.352000,1557.75'
p452
aS'2,51,51,51,9,7,7,51,51,51,51,15,13,17,51,100,100,-9,65.00,36.00,16.439506,80.630435,0.114000,1561.65199995'
p453
aS'1,51,51,51,51,51,51,51,51,51,51,51,51,51,51,100,100,-9,66.00,36.00,16.439498,80.630432,0.293000,1565.75'
p454
aS'2,51,51,51,16,10,9,51,51,51,51,9,7,11,51,100,100,-9,65.00,36.00,16.439499,80.630431,0.359000,1569.63899994'
p455
aS'1,51,51,51,51,51,51,51,51,51,51,51,51,51,51,100,100,-9,66.00,36.00,16.439501,80.630429,0.292000,1573.73500013'
p456
aS'2,51,51,51,10,6,7,51,51,51,51,51,7,9,51,100,100,-9,66.00,36.00,16.439507,80.630429,0.219000,1578.69400001'
p457
aS'1,51,51,51,51,51,51,51,51,51,51,51,51,51,51,100,100,-9,66.00,36.00,16.439508,80.630429,0.078000,1582.95099998'
p458
aS'2,51,51,51,51,14,13,51,51,51,51,9,6,8,51,100,100,-9,66.00,36.00,16.439508,80.630423,0.536000,1587.04699993'
p459
aS'1,37,51,51,51,51,51,51,51,51,51,51,51,51,51,100,100,-9,66.00,36.00,16.439504,80.630436,0.703000,1590.75200009'
p460
aS'2,51,51,51,22,17,17,51,51,51,51,51,8,9,51,100,100,-9,66.00,36.00,16.439503,80.630441,0.112000,1593.60100007'
p461
aS'1,51,51,51,51,51,51,51,51,51,51,51,51,51,51,100,100,-9,66.00,36.00,16.439502,80.630444,0.276000,1597.6960001'
p462
aS'2,51,51,51,27,22,22,51,51,51,51,17,13,13,51,100,100,-9,66.00,36.00,16.439504,80.630447,0.091000,1600.15799999'
p463
aS'1,51,51,51,51,51,51,51,51,51,51,51,51,51,51,100,100,-9,65.00,35.00,16.439506,80.630451,0.470000,1604.25'
p464
aS'2,51,51,51,51,8,7,51,51,51,51,51,8,10,51,100,100,-9,66.00,36.00,16.439511,80.630445,0.247000,1609.57700014'
p465
aS'1,51,51,51,51,51,51,51,51,51,51,51,51,51,37,100,100,-9,66.00,36.00,16.439513,80.630450,0.351000,1613.46700001'
p466
aS'2,51,51,51,9,6,7,51,51,51,51,13,6,7,51,100,100,-9,66.00,36.00,16.439503,80.630438,0.301000,1618.99600005'
p467
aS'1,33,51,51,51,51,51,51,51,51,51,51,51,51,33,100,100,-9,66.00,36.00,16.439499,80.630426,0.263000,1622.75999999'
p468
aS'1,51,51,51,39,37,37,51,51,51,51,51,29,31,51,100,100,-9,66.00,36.00,16.439488,80.630425,0.277000,1625.23900008'
p469
aS'2,51,51,51,13,10,14,51,51,51,51,51,19,22,51,100,100,-9,66.00,36.00,16.439485,80.630429,0.174000,1628.21300006'
p470
aS'1,51,51,51,51,51,51,51,51,51,51,51,51,51,51,100,100,-9,66.00,36.00,16.439486,80.630429,0.138000,1630.75'
p471
aS'2,51,51,51,8,6,8,51,51,51,51,51,51,21,51,100,100,-9,66.00,36.00,16.439500,80.630426,0.322000,1637.43799996'
p472
aS'1,32,51,31,51,51,51,51,51,51,51,51,51,51,51,100,100,-9,66.00,36.00,16.439508,80.630439,0.166000,1641.32700014'
p473
aS'2,51,51,51,27,20,20,51,51,51,51,14,11,10,51,100,100,-9,66.00,36.00,16.439500,80.630439,0.199000,1643.98300004'
p474
aS'1,32,51,51,51,51,51,51,51,51,51,51,51,51,51,100,100,-9,66.00,36.00,16.439500,80.630437,0.097000,1647.85100007'
p475
aS'2,51,51,51,51,20,19,51,51,51,51,51,10,10,51,100,100,-9,66.00,36.00,16.439504,80.630435,0.069000,1652.1730001'
p476
aS'1,51,51,51,51,51,51,51,51,51,51,51,51,51,51,100,100,-9,66.00,36.00,16.439505,80.630436,0.080000,1657.51200008'
p477
aS'2,51,51,51,8,7,8,51,51,51,51,8,7,11,51,100,100,-9,66.00,36.00,16.439500,80.630444,0.120000,1661.18900013'
p478
aS'1,51,51,51,51,51,51,51,51,51,51,51,51,51,51,100,100,-9,66.00,36.00,16.439483,80.630444,0.257000,1665.12600017'
p479
aS'2,51,51,51,51,10,10,51,51,51,51,18,16,21,51,100,100,-9,66.00,36.00,16.439480,80.630449,0.146000,1670.61100006'
p480
aS'1,51,51,51,51,51,51,51,51,51,51,51,51,51,51,100,100,-9,66.00,36.00,16.439478,80.630465,0.307000,1674.70300007'
p481
aS'2,51,51,51,51,10,9,51,51,51,51,11,10,13,51,100,100,-9,66.00,36.00,16.439467,80.630451,0.361000,1680.03800011'
p482
aS'1,51,51,39,51,51,51,51,51,51,51,51,51,51,51,100,100,-9,66.00,36.00,16.439458,80.630451,0.249000,1684.12199998'
p483
aS'2,51,51,51,51,8,8,51,51,51,51,15,14,51,51,100,100,-9,66.00,36.00,16.439457,80.630456,0.147000,1688.21700001'
p484
aS'1,38,39,39,51,51,51,51,51,51,51,51,51,51,51,100,100,-9,66.00,36.00,16.439449,80.630463,0.483000,1692.11000013'
p485
aS'2,51,51,51,51,15,14,51,51,51,51,17,15,18,51,100,100,-9,66.00,36.00,16.439437,80.630441,0.285000,1697.44200015'
p486
aS'1,51,51,51,51,51,51,51,51,51,51,51,51,51,51,100,100,-9,98.00,36.00,16.439442,80.630437,0.162000,1701.32500005'
p487
aS'2,51,51,51,51,38,51,51,51,51,51,51,51,51,51,100,100,-9,66.00,36.00,16.439462,80.630443,0.184000,1704.19200015'
p488
aS'1,51,51,51,51,51,51,51,51,51,51,51,51,51,51,100,100,-9,66.00,36.00,16.439463,80.630443,0.061000,1705.421'
p489
aS'2,51,51,51,8,7,9,51,51,51,51,51,17,19,51,100,100,-9,67.00,36.00,16.439473,80.630435,0.396000,1710.74500012'
p490
aS'1,38,51,51,51,51,51,51,51,51,51,51,51,51,51,100,100,-9,66.00,36.00,16.439483,80.630436,0.210000,1714.63600016'
p491
aS'2,51,51,51,51,19,18,51,51,51,51,13,10,13,51,100,100,-9,66.00,36.00,16.439494,80.630432,0.026000,1718.73200011'
p492
aS'1,36,40,51,51,51,51,51,51,51,51,51,51,51,51,100,100,-9,67.00,36.00,16.439495,80.630440,0.231000,1722.62300014'
p493
aS'2,51,51,51,51,11,11,51,51,51,51,19,17,21,51,100,100,-9,67.00,36.00,16.439494,80.630434,0.134000,1726.72800016'
p494
aS'1,37,38,51,51,51,51,51,51,51,51,51,51,51,51,100,100,-9,67.00,36.00,16.439497,80.630449,0.236000,1729.75600004'
p495
aS'2,51,51,51,51,12,12,51,51,51,51,14,11,12,51,100,100,-9,66.00,36.00,16.439499,80.630445,0.022000,1731.84500003'
p496
aS'1,51,51,51,51,51,51,51,51,51,51,51,51,51,51,100,100,-9,66.00,36.00,16.439495,80.630444,0.173000,1735.75100017'
p497
aS'2,51,51,51,22,17,16,51,51,51,51,11,8,9,51,100,100,-9,66.00,36.00,16.439495,80.630440,0.031000,1738.29200006'
p498
aS'1,34,34,51,51,51,51,51,51,51,51,51,51,51,51,100,100,-9,67.00,36.00,16.439493,80.630442,0.130000,1742.69300008'
p499
aS'2,51,51,51,51,10,8,51,51,51,51,14,15,51,51,100,100,-9,66.00,36.00,16.439501,80.630457,0.127000,1747.81900001'
p500
aS'1,51,51,51,51,51,51,51,51,51,51,51,51,51,51,100,100,-9,66.00,36.00,16.439501,80.630464,0.242000,1750.47600007'
p501
aS'2,51,51,51,51,15,14,33,51,51,51,10,10,51,51,100,100,-9,66.00,35.00,16.439506,80.630474,0.188000,1754.57299995'
p502
aS'1,51,51,51,51,51,51,51,51,51,51,51,51,51,51,100,100,-9,66.00,36.00,16.439501,80.630468,0.213000,1758.66900015'
p503
aS'2,51,51,51,27,24,25,51,51,51,51,51,16,14,51,100,100,-9,67.00,36.00,16.439497,80.630465,0.176000,1762.35500002'
p504
aS'1,51,51,51,36,36,51,51,51,51,51,51,51,51,51,100,100,-9,67.00,36.00,16.439493,80.630464,0.124000,1765.02200007'
p505
aS'2,51,51,51,28,25,26,51,51,51,51,51,16,17,51,100,100,-9,66.00,36.00,16.439486,80.630463,0.081000,1769.31800008'
p506
aS'1,51,51,51,51,51,51,51,51,51,51,51,51,51,38,100,100,-9,67.00,36.00,16.439483,80.630467,0.252000,1773.00399995'
p507
aS'2,51,51,51,22,16,16,51,51,51,51,12,7,7,51,100,100,-9,67.00,36.00,16.439491,80.630484,0.327000,1776.95200014'
p508
aS'1,51,51,51,33,31,33,51,51,51,51,51,39,51,51,100,100,-9,67.00,36.00,16.439496,80.630478,0.218000,1779.75699997'
p509
aS'2,51,51,51,51,9,8,51,51,51,51,12,11,14,51,100,100,-9,67.00,36.00,16.439503,80.630479,0.173000,1783.75'
p510
aS'1,51,51,51,51,39,51,51,51,51,51,51,51,51,51,100,100,-9,67.00,36.00,16.439499,80.630472,0.174000,1786.14600015'
p511
aS'2,51,51,51,13,9,8,51,51,51,51,11,9,13,51,100,100,-9,67.00,36.00,16.439504,80.630469,0.085000,1790.41199994'
p512
aS'1,51,51,51,51,36,51,51,51,51,51,51,35,36,51,100,100,-9,67.00,36.00,16.439504,80.630462,0.238000,1793.07500005'
p513
aS'2,51,51,51,51,26,26,51,51,51,51,22,17,18,51,100,100,-9,67.00,36.00,16.439507,80.630459,0.295000,1794.50900006'
p514
aS'1,51,51,51,51,51,51,51,51,51,51,51,51,51,51,100,100,-9,67.00,36.00,16.439511,80.630454,0.275000,1798.19400001'
p515
aS'2,51,51,51,51,9,8,51,51,51,51,9,6,8,51,100,100,-9,66.00,36.00,16.439523,80.630467,0.210000,1802.29200006'
p516
aS'1,51,51,51,51,51,51,51,51,51,51,51,51,51,51,100,100,-9,67.00,36.00,16.439520,80.630473,0.200000,1806.06100011'
p517
aS'2,51,51,51,51,20,19,51,51,51,51,14,10,11,51,100,100,-9,67.00,36.00,16.439518,80.630458,0.142000,1810.07599998'
p518
aS'1,51,33,51,51,51,51,51,51,51,51,51,51,51,51,100,100,-9,66.00,36.00,16.439516,80.630459,0.032000,1814.38100004'
p519
aS'2,51,51,51,51,11,12,51,51,51,51,21,20,51,51,100,100,-9,67.00,36.00,16.439514,80.630448,0.205000,1818.2650001'
p520
aS'1,37,51,51,51,51,51,51,51,51,51,51,51,51,51,100,100,-9,67.00,36.00,16.439511,80.630438,0.115000,1822.00600004'
p521
aS'2,51,51,51,11,9,11,51,51,51,51,51,17,21,51,100,100,-9,67.00,36.00,16.439513,80.630455,0.309000,1828.75200009'
p522
aS'1,39,51,51,51,51,51,51,51,51,51,51,51,51,51,100,100,-9,67.00,36.00,16.439515,80.630458,0.189000,1831.57599998'
p523
aS'2,51,51,51,25,19,19,51,51,51,51,51,10,10,51,100,100,-9,67.00,36.00,16.439519,80.630455,0.077000,1833.96799994'
p524
aS'1,37,38,51,51,51,51,51,51,51,51,51,38,51,51,100,100,-9,67.00,36.00,16.439526,80.630473,0.378000,1838.33500004'
p525
aS'2,51,51,51,51,10,9,38,51,51,51,9,6,7,51,100,100,-9,67.00,36.00,16.439533,80.630490,0.567000,1840.99900007'
p526
aS'1,51,51,51,51,32,35,51,51,51,51,51,51,51,51,100,100,-9,67.00,36.00,16.439533,80.630492,0.335000,1843.65900016'
p527
aS'2,51,51,51,8,6,7,51,51,51,51,17,15,18,51,100,100,-9,67.00,36.00,16.439529,80.630482,0.170000,1847.55299997'
p528
aS'1,51,51,51,51,51,51,51,51,51,51,51,51,51,51,100,100,-9,67.00,36.00,16.439533,80.630489,0.243000,1850.21500015'
p529
aS'2,51,51,51,20,16,16,51,51,51,51,26,7,8,51,100,100,-9,67.00,36.00,16.439538,80.630497,0.453000,1852.75200009'
p530
aS'1,34,36,51,51,51,51,51,51,51,51,51,51,51,51,100,100,-9,66.00,35.00,16.439536,80.630496,0.222000,1856.977'
p531
aS'2,51,51,51,51,29,29,51,51,51,51,25,21,22,51,100,100,-9,67.00,36.00,16.439537,80.630492,0.170000,1859.63300014'
p532
aS'1,51,51,51,51,24,25,51,51,51,51,33,31,51,51,100,100,-9,67.00,36.00,16.439539,80.630493,0.268000,1861.84700012'
p533
aS'2,51,51,51,51,13,12,51,51,51,51,13,12,51,51,100,100,-9,67.00,36.00,16.439541,80.630487,0.109000,1864.75100017'
p534
aS'1,39,51,37,51,51,51,51,51,51,51,51,51,51,38,100,100,-9,67.00,36.00,16.439538,80.630478,0.130000,1868.75'
p535
aS'2,51,51,51,51,10,12,51,51,51,51,19,19,23,51,100,100,-9,67.00,36.00,16.439532,80.630465,0.103000,1873.97500014'
p536
aS'1,51,51,51,51,51,51,51,51,51,51,51,51,51,51,100,100,-9,67.00,36.00,16.439531,80.630460,0.174000,1876.76800013'
p537
aS'2,51,51,51,51,23,22,51,51,51,51,17,14,16,51,100,100,-9,67.00,36.00,16.439537,80.630457,0.172000,1879.49900007'
p538
aS'1,51,51,51,51,51,51,51,51,51,51,51,51,51,51,100,100,-9,67.00,36.00,16.439541,80.630479,0.441000,1884.76300001'
p539
aS'2,51,51,51,51,15,16,51,51,51,51,25,24,28,51,100,100,-9,67.00,36.00,16.439534,80.630486,0.040000,1888.71399999'
p540
aS'1,51,51,51,51,51,51,51,51,51,51,51,51,51,51,100,100,-9,67.00,36.00,16.439529,80.630483,0.363000,1892.75'
p541
aS'2,51,51,51,51,13,12,51,51,51,51,51,8,7,51,100,100,-9,67.00,164.00,16.439537,80.630481,0.141000,1896.40600014'
p542
aS'1,36,51,51,51,51,51,51,51,51,51,51,51,51,51,100,100,-9,67.00,36.00,16.439535,80.630463,0.365000,1900.39400005'
p543
aS'2,51,51,51,51,17,17,51,51,51,51,51,8,8,51,100,100,-9,67.00,36.00,16.439531,80.630456,0.057000,1904.48399997'
p544
aS'1,51,51,51,51,51,51,51,51,51,51,51,51,51,51,100,100,-9,67.00,36.00,16.439530,80.630439,0.379000,1908.75600004'
p545
aS'2,51,51,51,51,10,9,51,51,51,51,14,13,51,51,100,100,-9,67.00,36.00,16.439515,80.630456,0.913000,1912.34800005'
p546
aS'1,51,51,51,51,51,51,51,51,51,51,51,35,36,51,100,100,-9,67.00,36.00,16.439503,80.630462,0.261000,1916.75'
p547
aS'2,51,51,51,10,8,8,51,51,51,51,10,7,9,51,100,100,-9,67.00,36.00,16.439500,80.630459,0.119000,1919.43499994'
p548
aS'1,39,51,51,51,51,51,51,51,51,51,51,51,51,51,100,100,-9,67.00,36.00,16.439499,80.630456,0.150000,1923.33100009'
p549
aS'2,51,51,51,8,6,7,51,51,51,51,51,13,16,51,100,100,-9,67.00,36.00,16.439501,80.630460,0.246000,1928.65199995'
p550
aS'1,51,51,51,51,51,51,51,51,51,51,51,51,51,51,100,100,-9,67.00,36.00,16.439496,80.630459,0.345000,1931.31299996'
p551
aS'2,51,51,51,51,7,7,51,51,51,51,16,15,51,51,100,100,-9,67.00,36.00,16.439491,80.630472,0.041000,1936.64100003'
p552
aS'1,51,51,51,51,24,26,51,51,51,51,33,33,37,51,100,100,-9,67.00,36.00,16.439494,80.630470,0.116000,1937.66100001'
p553
aS'2,51,51,51,51,11,10,51,51,51,51,15,15,21,51,100,100,-9,67.00,36.00,16.439500,80.630469,0.183000,1940.32500005'
p554
aS'1,51,51,51,51,51,51,51,51,51,51,51,51,51,51,100,100,-9,67.00,36.00,16.439498,80.630467,0.145000,1943.19099998'
p555
aS'2,51,51,51,51,17,16,39,51,51,51,51,11,13,51,100,100,-9,67.00,36.00,16.439500,80.630468,0.208000,1945.58299994'
p556
aS'1,51,51,51,51,32,33,51,51,51,51,51,51,51,51,100,100,-9,67.00,36.00,16.439501,80.630448,0.300000,1949.95000005'
p557
aS'2,51,51,51,51,13,12,51,51,51,51,9,6,7,51,100,100,-9,67.00,36.00,16.439506,80.630447,0.098000,1953.76100016'
p558
aS'1,33,34,51,51,51,51,51,51,51,51,51,51,51,51,100,100,-9,67.00,36.00,16.439506,80.630442,0.114000,1957.73699999'
p559
aS'2,51,51,51,51,15,14,51,51,51,51,9,7,9,51,100,100,-9,67.00,36.00,16.439500,80.630437,0.195000,1960.59899998'
p560
aS'1,51,33,51,51,51,51,51,51,51,51,51,51,51,33,100,100,-9,67.00,36.00,16.439490,80.630430,0.371000,1964.49000001'
p561
aS'2,51,51,51,51,14,13,33,51,51,51,8,9,51,51,100,100,-9,67.00,36.00,16.439487,80.630433,0.073000,1968.58700013'
p562
aS'1,51,51,51,51,37,38,51,51,51,51,36,35,51,51,100,100,-9,67.00,36.00,16.439486,80.630435,0.148000,1971.25200009'
p563
aS'2,51,51,51,51,8,8,25,51,51,51,14,14,51,51,100,100,-9,67.00,36.00,16.439486,80.630437,0.073000,1973.75'
p564
aS'1,51,35,51,51,51,51,51,51,51,51,51,51,51,51,100,100,-9,68.00,36.00,16.439484,80.630424,0.466000,1976.15199995'
p565
aS'2,51,51,51,21,13,13,51,51,51,51,9,6,8,51,100,100,-9,68.00,36.00,16.439486,80.630417,0.405000,1980.13499999'
p566
aS'1,51,28,51,51,51,51,51,51,51,51,51,51,51,51,100,100,-9,68.00,37.00,16.439497,80.630428,0.073000,1984.55999994'
p567
aS'2,51,51,51,51,15,13,51,51,51,51,8,6,8,51,100,100,-9,67.00,36.00,16.439515,80.630457,0.667000,1986.78800011'
p568
aS'1,26,25,51,51,51,51,51,51,51,51,51,51,51,51,100,100,-9,66.00,35.00,16.439530,80.630478,0.313000,1992.34700012'
p569
aS'1,51,51,51,51,51,51,51,51,51,51,51,51,51,51,100,100,-9,68.00,36.00,16.439530,80.630457,0.270000,1996.23399997'
p570
aS'2,51,51,51,26,20,21,51,51,51,51,51,11,10,51,100,100,-9,68.00,36.00,16.439521,80.630467,0.204000,1998.77999997'
p571
aS'1,51,51,51,51,51,51,51,51,51,51,51,35,36,51,100,100,-9,67.00,35.00,16.439525,80.630451,0.342000,2002.9920001'
p572
aS'2,51,51,51,10,9,11,51,51,51,51,19,18,21,51,100,100,-9,68.00,36.00,16.439524,80.630447,0.231000,2005.66100001'
p573
aS'1,51,51,51,51,51,51,51,51,51,51,51,51,51,51,100,100,-9,68.00,36.00,16.439530,80.630447,0.209000,2008.3210001'
p574
aS'2,51,51,51,51,8,9,51,51,51,51,11,8,12,51,100,100,-9,68.00,36.00,16.439538,80.630447,0.171000,2012.41799998'
p575
aS'1,51,51,51,51,36,38,51,51,51,51,51,51,51,51,100,100,-9,68.00,36.00,16.439542,80.630445,0.072000,2014.72600007'
p576
aS'2,51,51,51,51,11,9,51,51,51,51,13,13,51,51,100,100,-9,68.00,36.00,16.439540,80.630440,0.041000,2018.96600008'
p577
aS'1,51,51,51,51,51,51,51,51,51,51,51,51,51,51,100,100,-9,68.00,36.00,16.439536,80.630436,0.253000,2022.75200009'
p578
aS'1,51,51,51,39,36,36,51,51,51,51,51,28,28,51,100,100,-9,68.00,36.00,16.439527,80.630427,0.416000,2025.72500014'
p579
aS'2,51,51,51,22,18,19,51,51,51,51,51,10,9,51,100,100,-9,68.00,36.00,16.439529,80.630432,0.080000,2026.72200012'
p580
aS'1,51,51,51,51,51,51,51,51,51,51,51,51,51,51,100,100,-9,68.00,36.00,16.439523,80.630440,0.299000,2031.04900002'
p581
aS'2,51,51,51,51,27,27,51,51,51,51,51,19,21,51,100,100,-9,68.00,36.00,16.439519,80.630446,0.319000,2033.71099997'
p582
aS'1,51,51,51,51,51,51,51,51,51,51,36,34,51,51,100,100,-9,68.00,36.00,16.439521,80.630435,0.188000,2037.60300016'
p583
aS'2,51,51,51,51,8,8,51,51,51,51,12,7,8,51,100,100,-9,68.00,36.00,16.439529,80.630446,0.127000,2040.2650001'
p584
aS'1,51,51,51,51,51,51,51,51,51,51,51,51,51,51,100,100,-9,68.00,36.00,16.439530,80.630457,0.233000,2044.36100006'
p585
aS'2,51,51,51,51,18,17,51,51,51,51,11,8,10,51,100,100,-9,68.00,36.00,16.439532,80.630458,0.104000,2046.75399995'
p586
aS'1,51,51,51,51,28,31,51,51,51,51,51,37,40,51,100,100,-9,68.00,36.00,16.439533,80.630460,0.148000,2049.28200006'
p587
aS'2,51,51,51,51,16,15,51,51,51,51,9,6,7,51,100,100,-9,68.00,36.00,16.439533,80.630461,0.195000,2052.34899998'
p588
aS'1,51,51,51,51,32,36,51,51,51,51,51,34,37,51,100,100,-9,68.00,36.00,16.439539,80.630465,0.053000,2054.81200004'
p589
aS'2,51,51,51,51,7,8,51,51,51,51,9,7,9,51,100,100,-9,68.00,36.00,16.439542,80.630462,0.084000,2057.67400002'
p590
aS'1,51,51,51,51,34,37,51,51,51,51,51,51,51,51,100,100,-9,67.00,36.00,16.439548,80.630467,0.117000,2060.33700013'
p591
aS'2,51,51,51,51,13,12,51,51,51,51,13,12,17,51,100,100,-9,67.00,36.00,16.439552,80.630471,0.121000,2064.22900009'
p592
aS'1,51,51,51,51,51,51,51,51,51,51,51,51,51,51,100,100,-9,68.00,36.00,16.439551,80.630478,0.159000,2068.32200003'
p593
aS'2,51,51,51,51,25,24,51,51,51,51,19,16,51,51,100,100,-9,67.00,37.00,16.439549,80.630479,0.147000,2070.9920001'
p594
aS'1,51,51,51,51,51,51,51,51,51,51,51,51,51,51,99,100,-9,68.00,36.00,16.439547,80.630461,0.317000,2076.11899996'
p595
aS'2,51,51,51,51,19,17,51,51,51,51,12,10,51,51,100,100,-9,68.00,36.00,16.439552,80.630448,0.194000,2079.95099998'
p596
aS'1,51,51,51,51,51,51,51,51,51,51,51,51,51,51,100,100,-9,67.00,36.00,16.439543,80.630450,0.145000,2085.5250001'
p597
aS'2,51,51,51,51,13,12,51,51,51,51,15,15,18,51,100,100,-9,67.00,36.00,16.439542,80.630452,0.093000,2088.18700004'
p598
aS'1,51,51,51,51,51,51,51,51,51,51,51,51,51,51,100,100,-9,68.00,36.00,16.439537,80.630455,0.211000,2090.75'
p599
aS'2,51,51,51,51,23,22,51,51,51,51,17,14,15,51,100,100,-9,67.00,36.00,16.439540,80.630453,0.122000,2094.7420001'
p600
aS'1,51,51,51,51,51,51,51,51,51,51,51,51,51,51,100,100,-9,67.00,36.00,16.439538,80.630458,0.102000,2099.85300016'
p601
aS'2,51,51,51,11,8,7,51,51,51,51,11,11,14,51,100,100,-9,67.00,36.00,16.439544,80.630463,0.224000,2106.75100017'
p602
aS'1,51,51,51,51,51,51,51,51,51,51,51,51,51,51,100,100,-9,67.00,36.00,16.439541,80.630468,0.308000,2110.86500001'
p603
aS'2,51,51,51,51,12,10,51,51,51,51,13,12,17,51,100,100,-9,67.00,36.00,16.439545,80.630453,0.301000,2115.79999995'
p604
aS'1,51,51,51,51,51,51,51,51,51,51,51,51,51,51,100,100,-9,67.00,36.00,16.439534,80.630460,0.265000,2121.36500001'
p605
aS'2,51,51,51,51,10,8,51,51,51,51,13,13,51,51,100,100,-9,67.00,36.00,16.439530,80.630458,0.373000,2126.69000006'
p606
aS'1,51,51,51,51,51,51,51,51,51,51,51,51,51,51,100,100,-9,68.00,36.00,16.439529,80.630453,0.106000,2129.35300016'
p607
aS'2,51,51,51,51,8,7,51,51,51,51,9,6,8,51,100,100,-9,67.00,36.00,16.439538,80.630456,0.480000,2133.06200004'
p608
aS'1,27,28,28,51,51,51,51,51,51,51,51,51,51,51,100,100,-9,67.00,36.00,16.439538,80.630449,0.415000,2138.75'
p609
aS'2,51,51,51,9,7,10,51,51,51,51,10,8,9,51,100,100,-9,67.00,36.00,16.439526,80.630455,0.167000,2142.66400003'
p610
aS'1,51,51,51,51,51,51,51,51,51,51,51,51,51,51,100,100,-9,67.00,36.00,16.439520,80.630463,0.484000,2146.74900007'
p611
aS'2,51,51,51,25,20,20,51,51,51,51,14,11,10,51,100,100,-9,67.00,36.00,16.439516,80.630463,0.081000,2149.03200006'
p612
aS'1,51,38,51,51,51,51,51,51,51,51,51,51,51,51,100,100,-9,67.00,36.00,16.439524,80.630459,0.398000,2152.99000001'
p613
aS'2,51,51,51,51,14,14,51,51,51,51,14,12,16,51,100,100,-9,67.00,36.00,16.439530,80.630442,0.133000,2157.41000009'
p614
aS'1,51,38,37,51,51,51,51,51,51,51,51,51,51,51,100,100,-9,67.00,36.00,16.439536,80.630441,0.425000,2161.30100012'
p615
aS'2,51,51,51,10,6,7,51,51,51,51,14,11,14,51,100,100,-9,67.00,36.00,16.439524,80.630421,1.276000,2165.19799995'
p616
aS'1,51,51,51,51,51,51,51,51,51,51,51,51,51,51,100,100,-9,67.00,36.00,16.439472,80.630369,1.398000,2169.28800011'
p617
aS'2,51,51,51,51,24,24,51,51,51,51,19,16,51,51,100,100,-9,67.00,36.00,16.439457,80.630366,0.555000,2171.95099998'
p618
aS'1,51,39,37,51,51,51,51,51,51,51,51,51,51,51,100,100,-9,67.00,36.00,16.439441,80.630352,0.467000,2178.50399995'
p619
a.